cfpylll.fplll.integer_matrix
unpickle_IntegerMatrix
p0
(I100
I100
(lp1
I-172
aI-1654
aI1568
aI-1724
aI1099
aI-368
aI105
aI127
aI446
aI564
aI-2286
aI-1529
aI1
aI355
aI314
aI-538
aI-539
aI-312
aI-1313
aI1036
aI516
aI2163
aI125
aI-1403
aI-588
aI289
aI435
aI671
aI-1234
aI-234
aI-210
aI-617
aI1000
aI848
aI-2727
aI-3184
aI-847
aI-313
aI632
aI565
aI-1581
aI424
aI338
aI-1368
aI2701
aI-2334
aI-1000
aI342
aI-145
aI-55
aI1081
aI909
aI-1041
aI126
aI-108
aI-926
aI863
aI-499
aI-490
aI1553
aI-877
aI284
aI191
aI-39
aI-439
aI526
aI-1660
aI-98
aI-431
aI-19
aI185
aI-1712
aI-1400
aI153
aI589
aI-2074
aI-1542
aI181
aI1501
aI577
aI122
aI-767
aI2089
aI2088
aI-1167
aI-474
aI-503
aI-299
aI-190
aI-82
aI-397
aI165
aI220
aI-265
aI-2361
aI854
aI385
aI350
aI1815
aI548
aI729
aI1104
aI871
aI-906
aI720
aI599
aI-459
aI879
aI133
aI-452
aI406
aI-2320
aI184
aI1408
aI-296
aI34
aI-792
aI1111
aI-1097
aI436
aI-703
aI1937
aI-2546
aI858
aI-871
aI-330
aI-464
aI-1324
aI1074
aI-182
aI1945
aI1133
aI-839
aI-1532
aI-2895
aI-1294
aI-1023
aI1090
aI262
aI1163
aI-1524
aI1562
aI1737
aI-1614
aI1781
aI-1854
aI-25
aI-1016
aI823
aI1115
aI-4
aI246
aI-698
aI-1512
aI471
aI1689
aI237
aI-676
aI1129
aI-690
aI928
aI-560
aI-82
aI867
aI-139
aI-811
aI1060
aI-625
aI1981
aI149
aI153
aI-2294
aI-19
aI1058
aI1178
aI-237
aI-32
aI553
aI-294
aI-465
aI543
aI-507
aI-995
aI1068
aI406
aI-467
aI1105
aI-1552
aI25
aI-1840
aI-1234
aI249
aI2404
aI-337
aI-1326
aI1987
aI254
aI719
aI1573
aI788
aI1829
aI602
aI190
aI310
aI482
aI-1055
aI1710
aI-217
aI291
aI657
aI-54
aI-4008
aI930
aI-406
aI-836
aI-370
aI933
aI1307
aI-1881
aI565
aI-608
aI785
aI487
aI670
aI19
aI-2203
aI-233
aI-151
aI1396
aI-1495
aI-928
aI-301
aI905
aI-1266
aI-253
aI-2038
aI-1364
aI-109
aI-1241
aI252
aI-407
aI1992
aI-831
aI-1901
aI1685
aI-1211
aI1094
aI226
aI-33
aI-1014
aI-857
aI2412
aI-451
aI-317
aI-1160
aI-1852
aI17
aI-1570
aI-267
aI950
aI-306
aI-685
aI688
aI-548
aI-1541
aI1152
aI-855
aI3105
aI1782
aI615
aI-1630
aI-1478
aI236
aI-1093
aI-56
aI-618
aI-951
aI-1718
aI835
aI-729
aI78
aI-1574
aI1406
aI2452
aI1036
aI43
aI588
aI-629
aI-320
aI860
aI-1378
aI-184
aI104
aI1326
aI-1830
aI1731
aI391
aI590
aI91
aI-407
aI-517
aI649
aI-141
aI998
aI1114
aI2092
aI-351
aI1284
aI-684
aI1112
aI69
aI-349
aI-335
aI-340
aI440
aI326
aI-557
aI-1278
aI1268
aI-962
aI1513
aI-269
aI-1746
aI2219
aI-1948
aI855
aI-2492
aI-173
aI-251
aI1624
aI1956
aI2061
aI-1063
aI-3200
aI-848
aI-64
aI-797
aI451
aI-805
aI-1011
aI897
aI-722
aI793
aI2005
aI811
aI258
aI-726
aI-1007
aI120
aI1667
aI543
aI-1053
aI774
aI-361
aI-586
aI2241
aI256
aI2245
aI1253
aI-2342
aI-932
aI1292
aI613
aI938
aI568
aI-2323
aI2663
aI-2421
aI126
aI-2530
aI185
aI956
aI1840
aI2876
aI1273
aI-339
aI-858
aI158
aI-1814
aI-46
aI-259
aI-803
aI-711
aI-495
aI-1210
aI391
aI960
aI-1405
aI1161
aI-1170
aI-1103
aI1349
aI891
aI-440
aI1145
aI-1376
aI-216
aI-710
aI915
aI606
aI-2656
aI-593
aI-1484
aI1054
aI-600
aI1432
aI1993
aI791
aI-103
aI1083
aI-1344
aI2210
aI-112
aI-494
aI685
aI196
aI1101
aI1605
aI2414
aI-255
aI1039
aI658
aI832
aI686
aI-181
aI-163
aI-1735
aI1383
aI630
aI901
aI-257
aI616
aI-1003
aI-1727
aI112
aI-528
aI-807
aI-1080
aI-2189
aI-63
aI1762
aI-1176
aI511
aI397
aI-898
aI168
aI-390
aI-249
aI127
aI1920
aI532
aI-856
aI2188
aI744
aI-517
aI920
aI882
aI71
aI398
aI-2240
aI-1135
aI1950
aI323
aI-409
aI-72
aI330
aI1289
aI-1696
aI-1921
aI403
aI-709
aI490
aI-467
aI1820
aI-41
aI-419
aI605
aI-2227
aI-770
aI-955
aI-837
aI436
aI-337
aI-1706
aI-1481
aI1538
aI1496
aI1434
aI-872
aI-703
aI818
aI1499
aI70
aI-1151
aI2329
aI-1374
aI-555
aI-973
aI-2055
aI755
aI-14
aI-1636
aI673
aI-1156
aI-2920
aI41
aI-1713
aI246
aI-373
aI68
aI-191
aI-1119
aI1067
aI-2130
aI1257
aI-424
aI225
aI-2436
aI-1157
aI-263
aI1155
aI-1053
aI-1107
aI535
aI-619
aI1529
aI-176
aI1806
aI-1344
aI-1928
aI327
aI-1749
aI1922
aI-360
aI-454
aI-688
aI-1282
aI74
aI-649
aI180
aI1057
aI-1117
aI-2565
aI2140
aI1090
aI862
aI-386
aI737
aI-1202
aI-960
aI1120
aI977
aI-788
aI109
aI-1062
aI-1796
aI499
aI1572
aI-2209
aI418
aI-2598
aI821
aI1718
aI938
aI-266
aI-374
aI-380
aI1753
aI-161
aI-1157
aI1622
aI-193
aI2046
aI-2024
aI926
aI-797
aI-1794
aI-248
aI-196
aI1361
aI-622
aI-1535
aI2332
aI1439
aI1268
aI-1118
aI-1975
aI-182
aI-481
aI813
aI-94
aI-2157
aI-555
aI401
aI-677
aI-546
aI-1612
aI-1152
aI419
aI473
aI1242
aI-2076
aI219
aI-368
aI-278
aI-1940
aI897
aI-12
aI1233
aI622
aI1607
aI685
aI-57
aI-2230
aI432
aI-517
aI394
aI-877
aI777
aI-187
aI-210
aI-127
aI1475
aI1364
aI1266
aI-494
aI-1568
aI335
aI606
aI-371
aI-2608
aI-287
aI432
aI-16
aI-1151
aI-33
aI-652
aI-1156
aI-1160
aI-266
aI1038
aI288
aI222
aI531
aI-960
aI3153
aI-1240
aI927
aI-589
aI-449
aI323
aI1562
aI-670
aI65
aI314
aI-837
aI-2123
aI327
aI487
aI714
aI6
aI398
aI2082
aI-515
aI-842
aI-1406
aI429
aI2676
aI-229
aI-1618
aI-1933
aI1848
aI2030
aI-1532
aI1533
aI-262
aI214
aI-1789
aI-180
aI9
aI-139
aI-1466
aI510
aI1371
aI2172
aI858
aI-26
aI-1088
aI-1878
aI1235
aI-205
aI-2717
aI-3228
aI1593
aI-2060
aI-377
aI503
aI-761
aI87
aI-1103
aI-973
aI865
aI-1075
aI832
aI901
aI-1
aI2800
aI-2048
aI-845
aI351
aI-2392
aI-141
aI1057
aI-2265
aI534
aI591
aI1083
aI-207
aI-544
aI-871
aI291
aI-1426
aI2079
aI1040
aI-247
aI988
aI265
aI-530
aI-446
aI-618
aI1308
aI-1041
aI1027
aI279
aI34
aI1089
aI-410
aI-788
aI568
aI-1638
aI243
aI-2297
aI42
aI797
aI815
aI-1205
aI922
aI503
aI601
aI-2861
aI-469
aI-1406
aI1416
aI1351
aI1550
aI-1738
aI547
aI-472
aI-503
aI347
aI-1263
aI984
aI-40
aI1294
aI-456
aI1832
aI-779
aI-1106
aI-2955
aI1193
aI1709
aI-1040
aI-989
aI-1055
aI-2163
aI-260
aI-2104
aI-445
aI194
aI160
aI-648
aI2300
aI705
aI653
aI-1677
aI-1306
aI-925
aI552
aI-876
aI-323
aI432
aI964
aI461
aI262
aI1624
aI-545
aI472
aI-1747
aI-1716
aI1576
aI-1011
aI2969
aI66
aI824
aI-1712
aI872
aI-1608
aI1841
aI-81
aI-357
aI3055
aI908
aI501
aI660
aI888
aI674
aI920
aI1813
aI-31
aI997
aI-1647
aI-397
aI-1722
aI-1083
aI-341
aI-347
aI1207
aI-786
aI720
aI610
aI-1145
aI415
aI-1560
aI328
aI219
aI265
aI1715
aI1417
aI100
aI1176
aI442
aI117
aI-1180
aI-121
aI-2105
aI1482
aI-1565
aI865
aI-88
aI1757
aI-563
aI1166
aI-913
aI-1445
aI-2216
aI-222
aI-1215
aI-1708
aI-744
aI-2813
aI707
aI-515
aI525
aI-953
aI-297
aI702
aI-1358
aI755
aI3301
aI976
aI290
aI-788
aI472
aI427
aI895
aI1476
aI373
aI2531
aI-2509
aI-442
aI1145
aI1971
aI-727
aI-1164
aI2053
aI381
aI2132
aI141
aI244
aI-225
aI186
aI1105
aI170
aI-344
aI2294
aI2468
aI-563
aI297
aI-1267
aI-364
aI465
aI-534
aI918
aI639
aI166
aI1213
aI-1454
aI1899
aI375
aI2612
aI542
aI-6
aI-491
aI624
aI1694
aI-333
aI977
aI1227
aI1205
aI787
aI1409
aI1979
aI1963
aI83
aI-326
aI2133
aI-1034
aI215
aI-563
aI2024
aI-3312
aI2371
aI-220
aI-1249
aI-374
aI-1185
aI-973
aI-2361
aI-1261
aI73
aI1128
aI99
aI97
aI691
aI1
aI892
aI-2410
aI647
aI-249
aI2464
aI529
aI552
aI1023
aI-685
aI-786
aI-241
aI-590
aI630
aI1000
aI310
aI-203
aI1449
aI837
aI-2803
aI-250
aI-244
aI1402
aI-881
aI-15
aI-2486
aI-135
aI992
aI53
aI1176
aI1196
aI1673
aI-816
aI-422
aI-2106
aI-1652
aI-393
aI-148
aI895
aI-518
aI417
aI1362
aI1800
aI661
aI-1397
aI108
aI-764
aI3526
aI-1885
aI-1606
aI958
aI834
aI1638
aI-363
aI421
aI-708
aI844
aI376
aI-1513
aI-187
aI568
aI-1958
aI1193
aI-767
aI273
aI-280
aI-3073
aI-944
aI482
aI-1637
aI-98
aI-251
aI-163
aI-142
aI-2255
aI1042
aI-2095
aI-1355
aI95
aI355
aI1867
aI-778
aI1680
aI-1610
aI122
aI-1749
aI1706
aI-1678
aI483
aI1121
aI-2778
aI-1222
aI-1211
aI1382
aI1375
aI675
aI-375
aI257
aI3717
aI-430
aI1082
aI-1801
aI1703
aI-1551
aI351
aI-731
aI600
aI589
aI-204
aI1417
aI217
aI82
aI1354
aI-957
aI-1685
aI2031
aI726
aI-2463
aI-2310
aI1246
aI-767
aI1024
aI-1613
aI789
aI-792
aI-189
aI-241
aI-324
aI-679
aI-381
aI-1560
aI-814
aI-1617
aI-55
aI1310
aI1013
aI1311
aI1295
aI-1144
aI2081
aI-1025
aI183
aI-275
aI-756
aI256
aI-20
aI609
aI-181
aI-1132
aI1136
aI303
aI127
aI241
aI144
aI-168
aI295
aI-398
aI1809
aI-1230
aI-439
aI682
aI-822
aI340
aI-209
aI-991
aI-971
aI461
aI1281
aI161
aI-799
aI-1556
aI-614
aI-1812
aI2755
aI-464
aI64
aI-1221
aI-583
aI724
aI1978
aI435
aI-1946
aI88
aI-2343
aI1029
aI-929
aI1296
aI-1300
aI-1496
aI-308
aI-1140
aI1074
aI-2098
aI-28
aI-1042
aI1263
aI-204
aI1741
aI3380
aI-79
aI-2414
aI-534
aI1708
aI-1223
aI-1245
aI1283
aI-1971
aI846
aI138
aI-396
aI1784
aI-339
aI572
aI565
aI829
aI1086
aI3420
aI-2035
aI-2677
aI-219
aI214
aI-510
aI2579
aI941
aI-849
aI189
aI-1244
aI-1646
aI-625
aI-464
aI-30
aI1258
aI1704
aI-1709
aI1638
aI-956
aI1141
aI484
aI-3142
aI-1269
aI339
aI80
aI1059
aI159
aI1285
aI-1907
aI1829
aI515
aI-319
aI-77
aI1779
aI2141
aI440
aI769
aI-13
aI-386
aI-1972
aI2573
aI2130
aI-271
aI2759
aI-356
aI641
aI-818
aI-1782
aI-888
aI2218
aI583
aI-117
aI1564
aI-661
aI434
aI-2137
aI2173
aI-218
aI-822
aI-1697
aI-78
aI-1039
aI-1066
aI-1806
aI-1850
aI788
aI-691
aI-1290
aI763
aI1210
aI-12
aI-267
aI-150
aI1756
aI879
aI1487
aI800
aI-97
aI190
aI-7
aI-71
aI-1382
aI-1345
aI-917
aI-909
aI810
aI-304
aI-1003
aI-664
aI-4582
aI439
aI0
aI-484
aI-1758
aI-547
aI-1514
aI-2334
aI126
aI-2099
aI2694
aI216
aI-597
aI-675
aI38
aI1024
aI-1901
aI585
aI-8
aI2787
aI-758
aI-799
aI-458
aI13
aI-2206
aI193
aI555
aI457
aI-817
aI420
aI-107
aI2087
aI-2445
aI-1476
aI-255
aI-1388
aI1617
aI934
aI2657
aI-3133
aI450
aI1
aI1967
aI-297
aI-185
aI2437
aI1383
aI271
aI22
aI761
aI-1308
aI256
aI1300
aI-384
aI2316
aI2147
aI1074
aI142
aI-405
aI1052
aI-931
aI-1849
aI285
aI2227
aI-909
aI293
aI822
aI705
aI-51
aI-2529
aI435
aI2384
aI-2862
aI-1388
aI-2105
aI-900
aI-870
aI789
aI1289
aI-453
aI3102
aI322
aI179
aI-547
aI-2947
aI-1110
aI1063
aI856
aI-1287
aI-1117
aI1164
aI961
aI-730
aI-562
aI2305
aI-1746
aI230
aI-301
aI-507
aI186
aI757
aI-1206
aI558
aI650
aI-1300
aI2447
aI952
aI-1421
aI-281
aI-2321
aI528
aI853
aI923
aI1460
aI-917
aI1197
aI-632
aI-925
aI-918
aI581
aI-717
aI592
aI209
aI548
aI-82
aI-1300
aI-962
aI-330
aI91
aI-274
aI-631
aI1100
aI182
aI1831
aI-1556
aI-838
aI635
aI782
aI-20
aI-2156
aI447
aI-430
aI2582
aI-1347
aI-1735
aI265
aI671
aI253
aI612
aI2353
aI-658
aI-2117
aI-2731
aI1420
aI-228
aI333
aI2591
aI353
aI-1400
aI-578
aI-2759
aI-1733
aI1106
aI-1407
aI1405
aI-769
aI126
aI-302
aI292
aI757
aI976
aI-1249
aI887
aI251
aI1009
aI-1486
aI512
aI1461
aI-791
aI-590
aI-1397
aI-886
aI1126
aI-2678
aI1779
aI-2729
aI-1542
aI2212
aI-901
aI740
aI140
aI-1019
aI-2107
aI-2420
aI1215
aI-642
aI430
aI-1316
aI949
aI681
aI1125
aI1374
aI703
aI-80
aI-4628
aI1568
aI1992
aI-718
aI-2251
aI998
aI-3763
aI672
aI-903
aI-91
aI-798
aI1043
aI-1446
aI1173
aI-314
aI1156
aI-2522
aI1176
aI990
aI2137
aI-2177
aI-2859
aI-423
aI-3566
aI1171
aI832
aI-2071
aI-2526
aI1835
aI1379
aI-1857
aI336
aI-259
aI859
aI-101
aI1045
aI255
aI-679
aI-784
aI235
aI-113
aI-3135
aI-222
aI-328
aI-1298
aI601
aI711
aI-1709
aI-170
aI-145
aI1259
aI-933
aI883
aI-935
aI-1645
aI-1612
aI1097
aI666
aI-926
aI-410
aI1097
aI-15
aI-1591
aI962
aI1323
aI147
aI-1692
aI639
aI696
aI428
aI1969
aI-367
aI857
aI-2072
aI199
aI-205
aI1017
aI-620
aI-279
aI667
aI-1051
aI105
aI-503
aI947
aI1994
aI-128
aI-2861
aI-336
aI1461
aI-1963
aI-870
aI763
aI-265
aI-1024
aI990
aI-1087
aI301
aI-372
aI-832
aI-488
aI-1024
aI2866
aI-117
aI-2293
aI2022
aI-823
aI1222
aI1370
aI-921
aI1063
aI-914
aI-1329
aI-736
aI-951
aI-16
aI839
aI-100
aI2489
aI-1222
aI-950
aI-3584
aI-1330
aI794
aI373
aI-616
aI893
aI-809
aI1389
aI-2752
aI-214
aI-312
aI422
aI1577
aI482
aI-555
aI-2353
aI173
aI-670
aI591
aI-1118
aI-398
aI-1175
aI235
aI-595
aI-1285
aI838
aI2508
aI-1441
aI1332
aI435
aI1256
aI1330
aI-390
aI-222
aI66
aI-172
aI496
aI-698
aI-459
aI-324
aI1909
aI-1315
aI-1172
aI632
aI1430
aI-1730
aI-61
aI343
aI-56
aI444
aI-382
aI189
aI-654
aI-1695
aI1332
aI424
aI-233
aI-984
aI-325
aI-1539
aI-955
aI624
aI-998
aI1106
aI934
aI-577
aI-885
aI-1441
aI321
aI-932
aI600
aI-279
aI-598
aI-817
aI-1377
aI-47
aI-738
aI291
aI647
aI-1608
aI-1460
aI2555
aI-405
aI-114
aI1044
aI-412
aI1194
aI2513
aI1232
aI-430
aI-1497
aI-2838
aI-177
aI-545
aI1614
aI-846
aI-801
aI788
aI1238
aI732
aI-45
aI-196
aI13
aI416
aI-1381
aI1894
aI-665
aI-314
aI-1600
aI1014
aI1606
aI-1736
aI1114
aI126
aI-51
aI-1591
aI-179
aI-669
aI-1034
aI-1392
aI-1166
aI111
aI2338
aI-1658
aI2766
aI-135
aI-1300
aI1152
aI-1707
aI-2071
aI-156
aI-463
aI-1956
aI-542
aI-631
aI-1307
aI252
aI-596
aI2001
aI-576
aI-235
aI822
aI614
aI842
aI-1806
aI532
aI779
aI1121
aI956
aI190
aI-60
aI1395
aI1890
aI-382
aI1392
aI-2100
aI2135
aI-2045
aI852
aI433
aI-1104
aI100
aI-907
aI148
aI-582
aI245
aI-580
aI1413
aI-775
aI543
aI-1315
aI-144
aI213
aI-256
aI-1640
aI-179
aI355
aI-2055
aI-1175
aI1304
aI1312
aI-813
aI-69
aI147
aI-1132
aI1441
aI966
aI-1753
aI-319
aI1544
aI233
aI191
aI1040
aI-104
aI-1030
aI1803
aI1664
aI-189
aI-1981
aI-3346
aI672
aI1682
aI-753
aI394
aI2242
aI-1884
aI132
aI1955
aI-614
aI-1297
aI350
aI39
aI-940
aI-837
aI-457
aI-287
aI2662
aI1367
aI1009
aI-1845
aI892
aI421
aI-291
aI1208
aI-1164
aI2487
aI101
aI24
aI-1173
aI-1804
aI-1529
aI-1766
aI279
aI-247
aI-929
aI1898
aI-1742
aI1207
aI-2462
aI1958
aI-896
aI14
aI1090
aI536
aI683
aI1129
aI-439
aI108
aI2377
aI-491
aI2881
aI-534
aI386
aI-811
aI-674
aI101
aI81
aI973
aI434
aI2417
aI-592
aI-272
aI-1065
aI-2743
aI884
aI936
aI-1690
aI-658
aI2622
aI-1637
aI-757
aI-46
aI1537
aI716
aI2089
aI-550
aI1736
aI39
aI-84
aI520
aI1043
aI-832
aI1860
aI-938
aI2430
aI778
aI153
aI-704
aI-1023
aI258
aI513
aI97
aI548
aI-1410
aI-1602
aI136
aI-955
aI920
aI-3018
aI-1200
aI-1453
aI347
aI708
aI-232
aI523
aI-1258
aI-207
aI788
aI-196
aI-1355
aI-2094
aI1185
aI-562
aI1451
aI-1578
aI1151
aI-2245
aI1495
aI-80
aI755
aI3126
aI-781
aI-98
aI325
aI-4460
aI-432
aI1188
aI418
aI-1625
aI-1629
aI-1356
aI602
aI-403
aI420
aI3172
aI750
aI-1288
aI-75
aI-135
aI1444
aI-210
aI526
aI3175
aI-476
aI-1145
aI-907
aI-371
aI1926
aI-634
aI-150
aI570
aI1810
aI1990
aI477
aI2618
aI548
aI-501
aI605
aI1168
aI488
aI-2339
aI400
aI-307
aI532
aI170
aI7
aI247
aI-882
aI765
aI780
aI1789
aI-1357
aI364
aI1435
aI452
aI-213
aI1835
aI-2037
aI1328
aI1095
aI1710
aI222
aI-1401
aI581
aI1073
aI1084
aI1347
aI-72
aI1400
aI525
aI-229
aI2106
aI2
aI-3233
aI-1604
aI1601
aI-672
aI-752
aI-1081
aI-43
aI1721
aI863
aI-688
aI1005
aI-425
aI-2238
aI895
aI888
aI-464
aI1238
aI90
aI-344
aI-1259
aI-770
aI-3273
aI34
aI290
aI1699
aI-305
aI-229
aI475
aI1001
aI430
aI1013
aI138
aI-256
aI-959
aI-1010
aI-876
aI-1386
aI-1495
aI230
aI-1860
aI1418
aI-1135
aI91
aI1214
aI1202
aI-490
aI429
aI-18
aI-933
aI-273
aI-1037
aI1526
aI-343
aI1741
aI962
aI-577
aI860
aI-1426
aI1325
aI-604
aI932
aI-2240
aI178
aI368
aI1091
aI2409
aI-2415
aI2763
aI2027
aI-809
aI-122
aI-2624
aI-426
aI1882
aI-1541
aI-2585
aI1679
aI-1699
aI-304
aI1518
aI1387
aI-2209
aI-675
aI-1894
aI-607
aI1446
aI187
aI-1353
aI1065
aI499
aI1807
aI1112
aI-1076
aI-94
aI653
aI24
aI-493
aI771
aI-1607
aI2627
aI-1571
aI-2007
aI587
aI-340
aI2558
aI1053
aI752
aI-184
aI-296
aI885
aI-2789
aI-46
aI-1277
aI-1359
aI-1974
aI-549
aI-2673
aI-112
aI-351
aI-516
aI235
aI1128
aI-1232
aI451
aI1749
aI-157
aI-1332
aI1911
aI1572
aI269
aI-217
aI-1941
aI-572
aI962
aI1291
aI196
aI294
aI-1099
aI-1484
aI-2385
aI-502
aI469
aI-79
aI1308
aI813
aI-894
aI1354
aI1115
aI-77
aI661
aI-1025
aI702
aI824
aI-891
aI-453
aI-463
aI-1203
aI660
aI1853
aI128
aI-1478
aI812
aI-1381
aI657
aI621
aI-510
aI1591
aI-307
aI1575
aI-442
aI-931
aI1321
aI-1832
aI-671
aI-196
aI17
aI711
aI-1242
aI2021
aI702
aI-1537
aI-81
aI-286
aI-1265
aI-1529
aI235
aI75
aI1051
aI1518
aI-337
aI-449
aI942
aI-753
aI613
aI-551
aI1181
aI811
aI47
aI-4504
aI1548
aI-404
aI2727
aI-1362
aI866
aI723
aI470
aI-1710
aI752
aI3268
aI-1248
aI2971
aI-2836
aI862
aI-92
aI1112
aI-3153
aI-1097
aI681
aI-357
aI678
aI241
aI-883
aI-53
aI-943
aI98
aI-1053
aI397
aI1971
aI-66
aI3084
aI-2048
aI-106
aI-935
aI1183
aI1490
aI699
aI745
aI-1107
aI1747
aI-564
aI-696
aI-145
aI1236
aI-560
aI789
aI-1090
aI568
aI-2390
aI-98
aI-452
aI172
aI-858
aI-1904
aI644
aI-891
aI-44
aI448
aI1225
aI203
aI1164
aI-1842
aI2489
aI162
aI583
aI334
aI-619
aI1857
aI-375
aI1839
aI-145
aI-363
aI1366
aI-2244
aI-764
aI-474
aI809
aI2283
aI-1593
aI-132
aI995
aI622
aI-556
aI-1219
aI272
aI-419
aI-162
aI754
aI746
aI-200
aI1409
aI1793
aI1103
aI356
aI1870
aI-38
aI-63
aI-122
aI-37
aI-34
aI2227
aI-508
aI565
aI35
aI130
aI-640
aI-1842
aI-406
aI251
aI2656
aI-1464
aI1750
aI-2183
aI-1265
aI-159
aI1501
aI-1871
aI-286
aI-1533
aI-1951
aI-1020
aI1551
aI155
aI-414
aI-1597
aI1557
aI1216
aI-286
aI3361
aI-344
aI581
aI14
aI2136
aI-1626
aI-184
aI1473
aI2421
aI971
aI-426
aI-151
aI1073
aI-477
aI-915
aI1283
aI280
aI227
aI-630
aI-293
aI-1062
aI869
aI-1912
aI-1893
aI-571
aI-672
aI717
aI-1106
aI-1652
aI2045
aI-752
aI1332
aI-1163
aI1135
aI-551
aI-252
aI358
aI2315
aI-179
aI-1548
aI911
aI1087
aI126
aI-1592
aI46
aI-615
aI1161
aI-1310
aI-1827
aI1734
aI1119
aI1588
aI-361
aI1029
aI893
aI-16
aI-2853
aI-307
aI1914
aI712
aI-324
aI-2261
aI-2442
aI-66
aI205
aI744
aI-883
aI2469
aI2530
aI-1413
aI-409
aI-1228
aI1637
aI548
aI-395
aI-274
aI768
aI-2024
aI2419
aI1035
aI-1259
aI2404
aI-1691
aI1447
aI-3251
aI1130
aI-936
aI-1231
aI-121
aI817
aI-98
aI-1556
aI-1297
aI-543
aI661
aI-1084
aI-2663
aI-1239
aI1243
aI1251
aI30
aI171
aI494
aI-1701
aI1818
aI-104
aI-1077
aI423
aI-198
aI1825
aI2077
aI1617
aI-885
aI-118
aI-750
aI-459
aI-741
aI1258
aI55
aI1323
aI86
aI1386
aI185
aI-957
aI1749
aI-1454
aI1008
aI-1630
aI-653
aI-1182
aI-1099
aI-105
aI-427
aI1302
aI-1553
aI2733
aI-840
aI379
aI-515
aI465
aI4142
aI2302
aI2655
aI584
aI1312
aI-585
aI-819
aI-32
aI-1882
aI-402
aI633
aI-769
aI-1461
aI-387
aI1724
aI357
aI1226
aI-872
aI-1885
aI-323
aI1485
aI-875
aI292
aI1488
aI-913
aI189
aI45
aI22
aI-738
aI-240
aI2991
aI2767
aI-1665
aI-891
aI-584
aI382
aI894
aI261
aI-67
aI2144
aI1328
aI-1877
aI1484
aI1531
aI1411
aI1462
aI1118
aI-496
aI1965
aI-907
aI-1582
aI1645
aI-585
aI1013
aI514
aI3493
aI2192
aI38
aI-493
aI-156
aI171
aI-3056
aI-388
aI639
aI517
aI165
aI-2891
aI1148
aI2505
aI1119
aI3052
aI2013
aI-3144
aI667
aI-1996
aI31
aI830
aI-1468
aI-382
aI798
aI9
aI310
aI-959
aI-1816
aI81
aI-627
aI1597
aI-406
aI-2886
aI-1931
aI-2348
aI-132
aI-833
aI1264
aI-3212
aI1713
aI384
aI-717
aI78
aI-419
aI1165
aI1137
aI1589
aI-103
aI-355
aI-923
aI-213
aI1505
aI-4196
aI1101
aI1208
aI899
aI-2361
aI-697
aI1389
aI2223
aI670
aI-639
aI-1928
aI-756
aI-1103
aI-958
aI-706
aI1095
aI-968
aI-1368
aI-516
aI640
aI622
aI-1851
aI1495
aI601
aI-1004
aI-316
aI130
aI-2112
aI2193
aI295
aI1955
aI1030
aI-7
aI73
aI-324
aI1763
aI-360
aI1832
aI230
aI751
aI2100
aI-729
aI-1643
aI1
aI1101
aI239
aI2304
aI-462
aI371
aI1352
aI1533
aI-1046
aI-64
aI-1408
aI244
aI-751
aI511
aI1065
aI1813
aI-1649
aI-1792
aI1395
aI1092
aI-518
aI857
aI-589
aI-945
aI1785
aI-2846
aI-52
aI-242
aI-83
aI1180
aI-467
aI345
aI-25
aI1909
aI-1557
aI1479
aI631
aI3933
aI1391
aI41
aI396
aI-1614
aI-386
aI775
aI-741
aI-511
aI-329
aI286
aI-1215
aI627
aI-26
aI-2639
aI-1322
aI-591
aI-889
aI144
aI1175
aI1767
aI-1232
aI1670
aI15
aI-1444
aI47
aI-4
aI-152
aI1936
aI-2002
aI864
aI984
aI848
aI222
aI-314
aI-257
aI23
aI1574
aI-1592
aI1634
aI372
aI55
aI-895
aI-1485
aI1744
aI81
aI-1261
aI-656
aI325
aI743
aI-738
aI-245
aI1539
aI-839
aI-964
aI-991
aI1216
aI1002
aI-126
aI-354
aI848
aI933
aI365
aI1046
aI-1131
aI886
aI-3514
aI2619
aI1724
aI508
aI-2404
aI-1591
aI-37
aI-3089
aI806
aI-1571
aI73
aI1597
aI69
aI3757
aI-159
aI2312
aI2577
aI-235
aI968
aI-396
aI508
aI965
aI-1079
aI-2263
aI709
aI-796
aI-1315
aI-781
aI-150
aI-151
aI-3580
aI900
aI163
aI-2002
aI1352
aI-1132
aI-542
aI-1040
aI-725
aI-1523
aI747
aI566
aI-1381
aI659
aI-111
aI-2649
aI2320
aI136
aI505
aI-1129
aI-1162
aI-2107
aI1592
aI1904
aI-566
aI1642
aI-1243
aI768
aI546
aI19
aI-1552
aI-36
aI-2231
aI-1731
aI1286
aI1323
aI-1549
aI-1627
aI-870
aI-374
aI-540
aI-839
aI-925
aI-596
aI291
aI-2361
aI-1296
aI-1260
aI72
aI1531
aI1673
aI-572
aI971
aI-2107
aI-1417
aI2278
aI932
aI2064
aI-3344
aI609
aI-1475
aI453
aI1412
aI746
aI615
aI-370
aI-345
aI-259
aI1303
aI-1436
aI3016
aI344
aI-1252
aI3218
aI-962
aI13
aI2206
aI-634
aI1731
aI50
aI1166
aI301
aI752
aI-2445
aI2295
aI1482
aI-3028
aI-583
aI-554
aI-1503
aI-1600
aI-160
aI1763
aI489
aI474
aI-574
aI-780
aI1614
aI-306
aI-1601
aI1268
aI-959
aI258
aI1623
aI-1531
aI557
aI1447
aI1653
aI-845
aI-322
aI-177
aI-2580
aI746
aI419
aI-47
aI2992
aI44
aI2286
aI1487
aI-1712
aI440
aI-2659
aI236
aI79
aI-244
aI2005
aI-2663
aI2764
aI-1227
aI1212
aI675
aI-2530
aI1161
aI-600
aI-273
aI1127
aI3457
aI1111
aI816
aI-989
aI167
aI837
aI-88
aI51
aI1174
aI-405
aI1197
aI-683
aI3025
aI480
aI-704
aI-550
aI3341
aI422
aI1454
aI-3615
aI-964
aI951
aI1031
aI1170
aI-1644
aI-352
aI-1785
aI151
aI-360
aI-907
aI52
aI-987
aI-1772
aI1332
aI-2775
aI983
aI985
aI-1616
aI629
aI-404
aI607
aI-954
aI-966
aI-2207
aI-1095
aI-1086
aI-1391
aI-1343
aI624
aI834
aI1840
aI-349
aI3548
aI3
aI465
aI1523
aI-1738
aI1423
aI1942
aI-1242
aI1705
aI589
aI2551
aI48
aI1035
aI905
aI880
aI-320
aI-146
aI-108
aI-166
aI1228
aI-1276
aI1543
aI-707
aI-883
aI-579
aI-273
aI-835
aI-328
aI-3451
aI-1206
aI-138
aI-446
aI379
aI-1489
aI1147
aI-996
aI54
aI-1415
aI2252
aI1654
aI-2514
aI41
aI800
aI1989
aI557
aI870
aI253
aI236
aI-809
aI112
aI263
aI-1759
aI-2101
aI962
aI-1792
aI1768
aI-593
aI1516
aI-485
aI814
aI-1762
aI712
aI-1304
aI-2260
aI-136
aI1188
aI2391
aI2474
aI-579
aI-2417
aI-3287
aI-385
aI-1693
aI2666
aI266
aI-1480
aI853
aI4997
aI-897
aI2475
aI1220
aI92
aI-2279
aI-221
aI1429
aI-1859
aI-1895
aI-305
aI-1984
aI135
aI2525
aI-2199
aI524
aI1320
aI-2560
aI-723
aI1253
aI987
aI-2101
aI2643
aI-2304
aI1089
aI191
aI-913
aI1159
aI2813
aI-437
aI378
aI-31
aI-345
aI196
aI1400
aI747
aI66
aI267
aI878
aI-1684
aI-1344
aI1406
aI2798
aI-275
aI1122
aI1000
aI996
aI-515
aI1385
aI-471
aI865
aI-1078
aI2620
aI678
aI-1322
aI-841
aI-168
aI-193
aI1081
aI-1595
aI2248
aI258
aI-189
aI-771
aI53
aI1124
aI-161
aI1817
aI-1628
aI-56
aI865
aI1599
aI809
aI-253
aI-303
aI-294
aI-2003
aI1871
aI1624
aI452
aI-928
aI-171
aI1686
aI1838
aI155
aI-1565
aI-321
aI2133
aI222
aI-667
aI-1870
aI287
aI2682
aI882
aI92
aI-1789
aI-1938
aI16
aI1684
aI-2047
aI21
aI165
aI662
aI891
aI2571
aI-2331
aI-1105
aI453
aI-165
aI1417
aI-1678
aI208
aI-1072
aI-707
aI1284
aI1089
aI530
aI-1651
aI1121
aI-1615
aI1093
aI-589
aI2419
aI1212
aI883
aI-721
aI-7
aI-668
aI1681
aI408
aI2155
aI-1639
aI166
aI-172
aI437
aI1295
aI-634
aI1614
aI-1543
aI-1375
aI-974
aI-1924
aI-733
aI-995
aI-43
aI750
aI2171
aI1016
aI2401
aI-2299
aI-1147
aI-363
aI-305
aI2266
aI1991
aI-1066
aI294
aI1641
aI276
aI2621
aI-759
aI-1445
aI-155
aI598
aI-269
aI1206
aI1286
aI1171
aI-1116
aI1245
aI96
aI-2413
aI3622
aI226
aI946
aI-1618
aI-2841
aI-520
aI-1480
aI-4363
aI982
aI604
aI868
aI1323
aI-377
aI-391
aI-1326
aI-339
aI2363
aI295
aI3628
aI22
aI-146
aI2406
aI-2100
aI952
aI-1308
aI284
aI435
aI-2240
aI-311
aI-946
aI1020
aI-64
aI933
aI1334
aI109
aI300
aI-527
aI2025
aI-1062
aI-213
aI-916
aI-1001
aI2403
aI988
aI149
aI-1293
aI1737
aI565
aI-2236
aI-1224
aI-196
aI-2312
aI-376
aI-424
aI893
aI-1758
aI429
aI-416
aI843
aI-1776
aI1184
aI-1038
aI741
aI-1105
aI977
aI993
aI2542
aI653
aI377
aI-628
aI1517
aI-102
aI895
aI684
aI-2197
aI717
aI927
aI1193
aI1330
aI-709
aI-1470
aI-275
aI-1621
aI-140
aI1486
aI260
aI1189
aI-1389
aI-57
aI167
aI-1627
aI-885
aI643
aI-1197
aI1339
aI-487
aI202
aI-1257
aI2118
aI2569
aI-3326
aI1593
aI-901
aI-1409
aI3590
aI-47
aI-2034
aI2500
aI-21
aI1336
aI1211
aI2789
aI63
aI-290
aI2487
aI563
aI-2332
aI-2722
aI-443
aI2265
aI1146
aI-1731
aI1964
aI2116
aI-2231
aI-1905
aI194
aI1731
aI-1370
aI-869
aI-325
aI-3348
aI1073
aI-783
aI1989
aI278
aI401
aI1089
aI-455
aI1088
aI743
aI-504
aI1227
aI280
aI1378
aI-511
aI-2371
aI474
aI-1652
aI3360
aI-600
aI133
aI515
aI1023
aI-196
aI-2990
aI2021
aI-734
aI-1031
aI-1005
aI-1571
aI-2178
aI-1697
aI-1672
aI765
aI-601
aI2134
aI2376
aI115
aI1776
aI628
aI2410
aI-2059
aI-1398
aI1164
aI669
aI-1738
aI1257
aI2303
aI-1302
aI608
aI418
aI1339
aI1650
aI-1023
aI-473
aI-493
aI3284
aI2014
aI264
aI-755
aI-143
aI-287
aI-669
aI-544
aI794
aI-2037
aI-2399
aI1149
aI1084
aI1987
aI-596
aI967
aI-898
aI2675
aI2854
aI-2124
aI-790
aI-361
aI-374
aI779
aI-1294
aI-1015
aI-2886
aI1738
aI-679
aI882
aI-1872
aI-303
aI383
aI-1020
aI-701
aI320
aI2061
aI-171
aI900
aI1964
aI122
aI-286
aI-2028
aI-2006
aI-2355
aI-1373
aI830
aI35
aI1762
aI1124
aI-1951
aI-282
aI-1033
aI620
aI542
aI770
aI1751
aI-290
aI-1588
aI-158
aI69
aI3800
aI-1228
aI67
aI1199
aI310
aI-1135
aI364
aI106
aI2349
aI357
aI-2451
aI-267
aI-1394
aI-449
aI441
aI2650
aI21
aI834
aI1085
aI-395
aI424
aI-165
aI747
aI14
aI477
aI-1252
aI-1220
aI-1252
aI1111
aI-327
aI1434
aI1272
aI251
aI949
aI-667
aI-1250
aI-2358
aI1872
aI-2339
aI-2108
aI1303
aI-1148
aI-1611
aI-882
aI1867
aI-1180
aI-2744
aI-1582
aI441
aI1647
aI711
aI26
aI-1776
aI1711
aI-2035
aI-565
aI-1408
aI-1960
aI2196
aI396
aI-1146
aI-670
aI566
aI-458
aI501
aI624
aI691
aI1509
aI-767
aI-210
aI-207
aI-2317
aI1253
aI-768
aI889
aI-2472
aI180
aI-866
aI1279
aI29
aI-1051
aI-799
aI307
aI776
aI3024
aI-258
aI-1077
aI1168
aI1820
aI1408
aI-735
aI601
aI1637
aI-802
aI-2884
aI-708
aI-416
aI-1934
aI-436
aI-1749
aI486
aI1603
aI-587
aI1917
aI753
aI-32
aI-3019
aI976
aI3289
aI-213
aI-2804
aI889
aI1079
aI-1949
aI2546
aI2139
aI-184
aI59
aI-1706
aI544
aI3536
aI2039
aI-1176
aI-768
aI-909
aI1061
aI735
aI2069
aI355
aI-2091
aI-283
aI206
aI2760
aI660
aI1003
aI1232
aI1383
aI-2011
aI-835
aI1125
aI-1770
aI-3353
aI-1164
aI-1642
aI-1784
aI1635
aI706
aI267
aI-39
aI-1854
aI-1501
aI4148
aI1239
aI112
aI527
aI1520
aI-831
aI2078
aI-837
aI846
aI181
aI196
aI-988
aI1775
aI765
aI-965
aI2677
aI-838
aI-623
aI-193
aI804
aI3016
aI704
aI3134
aI-2837
aI2091
aI-1339
aI113
aI1045
aI-796
aI-1193
aI702
aI75
aI2263
aI-3491
aI-21
aI-305
aI1213
aI73
aI-261
aI213
aI379
aI-678
aI425
aI1033
aI-10
aI350
aI796
aI-2882
aI1117
aI-1887
aI644
aI-1402
aI1594
aI-1119
aI997
aI347
aI-1627
aI-1383
aI-478
aI728
aI-1270
aI-960
aI2309
aI1209
aI-674
aI-276
aI526
aI967
aI2833
aI346
aI1392
aI-1583
aI-2754
aI2439
aI-49
aI758
aI-1260
aI-1433
aI410
aI-1575
aI1445
aI-110
aI-1799
aI-3338
aI-1474
aI-650
aI-757
aI2583
aI-969
aI-566
aI1545
aI1510
aI-658
aI445
aI1606
aI-320
aI1473
aI348
aI-1372
aI-161
aI1554
aI-2077
aI-913
aI-1440
aI432
aI-739
aI-36
aI674
aI1178
aI-1205
aI-697
aI1378
aI372
aI2226
aI-1438
aI340
aI730
aI392
aI-1176
aI-1164
aI1953
aI-1452
aI198
aI-3146
aI1048
aI422
aI-1477
aI-1297
aI1052
aI1166
aI-489
aI1360
aI-215
aI-672
aI-2324
aI2499
aI-697
aI-1288
aI-979
aI400
aI-2954
aI-1842
aI-1036
aI815
aI-502
aI1182
aI2875
aI-695
aI19
aI543
aI-1158
aI-2089
aI-308
aI-2260
aI-988
aI92
aI-37
aI-2084
aI127
aI882
aI-1301
aI639
aI1730
aI-884
aI-651
aI-2051
aI-3003
aI-809
aI-1115
aI549
aI1824
aI-222
aI1173
aI-235
aI204
aI-3378
aI3457
aI-1720
aI1650
aI1435
aI2689
aI3367
aI1214
aI-385
aI-118
aI-1047
aI1758
aI282
aI-1822
aI1283
aI75
aI1027
aI3468
aI-83
aI125
aI-3150
aI-2365
aI51
aI1227
aI2345
aI202
aI-522
aI-36
aI-1417
aI-1624
aI1523
aI824
aI200
aI47
aI-85
aI-1210
aI8
aI-1524
aI1827
aI-1560
aI1099
aI2672
aI1130
aI2190
aI-3216
aI-2556
aI566
aI445
aI515
aI-61
aI2143
aI-9
aI-49
aI-1339
aI134
aI1341
aI-988
aI-2093
aI1046
aI-955
aI1641
aI1385
aI-2841
aI-1175
aI1699
aI-671
aI841
aI-2310
aI-1989
aI-2842
aI101
aI1027
aI2543
aI-1885
aI-491
aI-247
aI-324
aI722
aI913
aI1221
aI-1171
aI1938
aI-133
aI1851
aI-435
aI1042
aI504
aI656
aI148
aI-2219
aI-321
aI-599
aI-212
aI2045
aI1517
aI-439
aI178
aI234
aI-2939
aI2956
aI521
aI-3022
aI698
aI166
aI-1632
aI-481
aI1395
aI-621
aI945
aI1266
aI-840
aI-2211
aI-179
aI1133
aI-75
aI-1847
aI2071
aI-774
aI2878
aI-261
aI-1600
aI259
aI-39
aI-1087
aI-2362
aI1394
aI300
aI-2367
aI1273
aI1028
aI-1449
aI1075
aI-1201
aI680
aI546
aI-1348
aI-746
aI1595
aI2351
aI2438
aI2105
aI-40
aI-1544
aI-268
aI-182
aI3332
aI1348
aI-1238
aI-352
aI-744
aI-1261
aI492
aI1566
aI-1374
aI-124
aI2021
aI-3392
aI230
aI-963
aI-1798
aI519
aI-22
aI8
aI-1306
aI891
aI1475
aI2185
aI3009
aI-1229
aI783
aI-988
aI2389
aI669
aI1243
aI-750
aI-53
aI-2687
aI1236
aI89
aI-178
aI2911
aI-98
aI712
aI-2385
aI-834
aI-1199
aI537
aI215
aI2749
aI214
aI919
aI-1066
aI373
aI1464
aI1120
aI986
aI-1445
aI344
aI-2011
aI-2125
aI852
aI793
aI348
aI-1963
aI2201
aI-2204
aI-2125
aI-1088
aI-762
aI2406
aI761
aI-1855
aI470
aI3550
aI-1107
aI679
aI-1189
aI-2523
aI1980
aI364
aI-478
aI210
aI2890
aI-1243
aI-317
aI1036
aI-2954
aI-172
aI-2209
aI2401
aI1544
aI758
aI-209
aI-1743
aI-464
aI-886
aI-992
aI661
aI-559
aI1368
aI-530
aI-280
aI-1361
aI-1916
aI501
aI1181
aI455
aI-1718
aI1358
aI-520
aI627
aI2034
aI-789
aI688
aI708
aI28
aI1466
aI187
aI-2876
aI-76
aI198
aI-2685
aI2748
aI-1602
aI184
aI279
aI3836
aI-1064
aI972
aI942
aI-714
aI752
aI-1881
aI2191
aI1237
aI-951
aI2049
aI1072
aI556
aI-21
aI576
aI373
aI-2379
aI-272
aI-688
aI469
aI-908
aI1267
aI1887
aI-978
aI660
aI37
aI16
aI-123
aI-1763
aI1010
aI-1021
aI2183
aI760
aI957
aI-1061
aI-2431
aI-1187
aI351
aI249
aI-1766
aI-2539
aI-1362
aI802
aI-184
aI-688
aI991
aI385
aI-1102
aI-381
aI-1079
aI80
aI-1623
aI36
aI-877
aI3310
aI-150
aI2247
aI786
aI-239
aI-4294
aI1336
aI2826
aI-872
aI-629
aI358
aI-619
aI1234
aI-276
aI-3109
aI-1752
aI1453
aI-1550
aI337
aI1169
aI-1102
aI-2131
aI-191
aI-233
aI-536
aI-1576
aI-604
aI-1732
aI-273
aI-2473
aI-872
aI14
aI-966
aI951
aI3247
aI-1144
aI415
aI3519
aI1870
aI-430
aI-1037
aI425
aI2303
aI-701
aI-3103
aI1717
aI-233
aI1388
aI315
aI2127
aI-1837
aI105
aI-277
aI-229
aI1573
aI-329
aI2915
aI514
aI1082
aI-148
aI2594
aI-1758
aI2001
aI-1611
aI-1469
aI821
aI284
aI-1328
aI1450
aI1361
aI-93
aI714
aI-378
aI2425
aI-778
aI605
aI422
aI-57
aI-1415
aI-98
aI1935
aI-2481
aI236
aI-1258
aI-270
aI625
aI-901
aI175
aI-1562
aI620
aI1334
aI325
aI-1570
aI3260
aI1093
aI-3794
aI1938
aI-1316
aI646
aI-587
aI2374
aI-814
aI220
aI140
aI794
aI-2921
aI1348
aI1055
aI1201
aI-479
aI223
aI-886
aI1003
aI-276
aI-2744
aI-129
aI-1639
aI1349
aI-949
aI-891
aI5
aI-100
aI-12
aI-1681
aI1147
aI-1070
aI689
aI716
aI-428
aI-451
aI199
aI360
aI188
aI1736
aI-3965
aI-1822
aI384
aI-336
aI1159
aI2205
aI2866
aI289
aI2575
aI-3268
aI-1950
aI4173
aI-1934
aI723
aI260
aI0
aI-81
aI688
aI1880
aI-100
aI-1034
aI-1548
aI-1685
aI-664
aI746
aI322
aI214
aI2160
aI792
aI-1700
aI2809
aI-930
aI1240
aI1197
aI-748
aI501
aI-2109
aI-1584
aI183
aI-1620
aI-1303
aI-224
aI-470
aI-485
aI1114
aI-376
aI-96
aI-1077
aI2436
aI973
aI479
aI2427
aI582
aI3237
aI-1733
aI1103
aI1903
aI678
aI-176
aI-1617
aI814
aI-1809
aI1991
aI1013
aI1337
aI1024
aI-1449
aI-832
aI1145
aI-720
aI-1101
aI503
aI-2226
aI-936
aI-1844
aI1860
aI-697
aI2000
aI-1673
aI1701
aI-341
aI1988
aI2659
aI-433
aI1960
aI560
aI1952
aI-1773
aI-172
aI659
aI268
aI-1015
aI737
aI1919
aI254
aI-238
aI426
aI-494
aI-1597
aI1198
aI-907
aI286
aI1709
aI-1987
aI944
aI404
aI2305
aI752
aI-2072
aI-1329
aI1676
aI-685
aI1380
aI1032
aI1873
aI-1857
aI-642
aI1109
aI1917
aI-1132
aI1069
aI1572
aI645
aI638
aI-1050
aI1961
aI26
aI365
aI-631
aI1173
aI-704
aI-1082
aI536
aI3380
aI669
aI1015
aI-1307
aI845
aI989
aI1272
aI-457
aI741
aI-2478
aI1382
aI-617
aI3765
aI630
aI-1060
aI-3140
aI709
aI-146
aI1662
aI413
aI1730
aI2270
aI269
aI-2083
aI-2300
aI1236
aI-3023
aI-1630
aI2103
aI-1431
aI167
aI954
aI217
aI-2496
aI2006
aI417
aI-558
aI973
aI-274
aI-215
aI-205
aI-1236
aI1447
aI-911
aI458
aI534
aI390
aI446
aI-205
aI2144
aI-1878
aI145
aI2643
aI2217
aI-1189
aI1547
aI-936
aI607
aI-1230
aI-1728
aI-728
aI904
aI349
aI-445
aI201
aI1070
aI-846
aI-133
aI330
aI2348
aI12
aI1147
aI-1803
aI396
aI654
aI1750
aI1699
aI-511
aI116
aI-152
aI93
aI-367
aI-1735
aI324
aI-866
aI-1521
aI26
aI1313
aI-280
aI-1913
aI1872
aI-1010
aI911
aI-201
aI-1363
aI-543
aI-740
aI361
aI-295
aI134
aI639
aI367
aI-624
aI2539
aI234
aI556
aI769
aI-1277
aI1453
aI-1954
aI423
aI-124
aI-864
aI-1842
aI-153
aI624
aI843
aI-1878
aI1152
aI422
aI-582
aI-941
aI551
aI567
aI725
aI-157
aI1294
aI-2811
aI-476
aI-578
aI1223
aI317
aI915
aI1135
aI-1405
aI-1197
aI2187
aI940
aI818
aI46
aI521
aI-3617
aI-1438
aI1634
aI-203
aI-1931
aI-1198
aI-3015
aI273
aI-1036
aI1885
aI1273
aI-729
aI639
aI113
aI-2921
aI-441
aI-502
aI-53
aI1911
aI166
aI-2703
aI-50
aI-188
aI-167
aI-1215
aI-481
aI-406
aI938
aI-1415
aI-834
aI-858
aI-761
aI332
aI-522
aI788
aI999
aI-864
aI-877
aI-836
aI1720
aI404
aI153
aI-451
aI-673
aI-395
aI-3955
aI1532
aI-550
aI2064
aI-523
aI2040
aI115
aI-2272
aI-2466
aI1425
aI2063
aI1154
aI-882
aI-1168
aI268
aI-747
aI534
aI134
aI-5
aI2196
aI-3261
aI108
aI567
aI935
aI2679
aI1387
aI3206
aI-1292
aI2025
aI578
aI-1811
aI-922
aI-813
aI1504
aI178
aI3064
aI-915
aI-1535
aI-1937
aI-21
aI-1805
aI-43
aI1632
aI-2323
aI1236
aI1855
aI-692
aI-845
aI396
aI-2882
aI1041
aI723
aI929
aI2626
aI512
aI-160
aI-2070
aI-210
aI-133
aI1308
aI1333
aI589
aI-931
aI-598
aI1623
aI-863
aI228
aI4142
aI677
aI-2163
aI-239
aI-82
aI1691
aI424
aI564
aI1317
aI296
aI-878
aI-226
aI547
aI-1428
aI256
aI-887
aI-1628
aI-1190
aI584
aI-1542
aI-483
aI2266
aI-1227
aI3057
aI-117
aI288
aI778
aI-1464
aI-438
aI1266
aI1881
aI-2079
aI-1563
aI-1917
aI225
aI1274
aI-1927
aI6540
aI-766
aI5
aI207
aI-1120
aI1033
aI1130
aI-2109
aI-2030
aI224
aI-946
aI-1650
aI536
aI1988
aI898
aI491
aI1747
aI504
aI770
aI-1210
aI-1192
aI1115
aI529
aI508
aI-3205
aI2860
aI10
aI34
aI-1511
aI-1786
aI33
aI-2851
aI-881
aI-1509
aI137
aI-493
aI79
aI-1000
aI-2015
aI1002
aI-817
aI2673
aI33
aI-1078
aI1067
aI-38
aI1139
aI1456
aI1647
aI-2324
aI-838
aI-1125
aI1876
aI1273
aI-1478
aI1215
aI515
aI426
aI-396
aI-666
aI-1072
aI551
aI-2446
aI-261
aI-3239
aI-284
aI-1625
aI854
aI465
aI-1638
aI-566
aI-1659
aI884
aI-772
aI1159
aI-2268
aI2245
aI508
aI-3052
aI310
aI130
aI-1909
aI648
aI695
aI-1075
aI-211
aI-818
aI2390
aI332
aI-1235
aI643
aI-31
aI-1341
aI-122
aI-178
aI-528
aI-598
aI972
aI-954
aI90
aI1097
aI-1127
aI-602
aI44
aI-3231
aI-2014
aI-1088
aI-1662
aI435
aI-11
aI11
aI240
aI-1866
aI639
aI486
aI-2232
aI791
aI-295
aI2241
aI351
aI129
aI794
aI-753
aI-381
aI-1333
aI664
aI2051
aI-342
aI322
aI-1029
aI-171
aI-179
aI849
aI2008
aI-964
aI-1229
aI-95
aI-1767
aI-143
aI-2433
aI1141
aI-1106
aI2555
aI-103
aI707
aI-723
aI877
aI701
aI-735
aI-1868
aI1614
aI1099
aI-440
aI2144
aI-2216
aI395
aI-611
aI-982
aI372
aI4110
aI-1310
aI-727
aI-1224
aI1934
aI4
aI-1494
aI-2025
aI649
aI-2423
aI1161
aI-1178
aI-2971
aI482
aI-673
aI-63
aI316
aI2191
aI3198
aI-1727
aI50
aI301
aI-71
aI-1230
aI587
aI-780
aI848
aI2252
aI-1410
aI720
aI-1487
aI651
aI552
aI881
aI271
aI-813
aI-852
aI1510
aI57
aI-1206
aI30
aI2782
aI859
aI-628
aI339
aI-2266
aI1516
aI525
aI137
aI842
aI341
aI-716
aI1515
aI2404
aI-1065
aI-1130
aI515
aI506
aI-1174
aI-605
aI781
aI934
aI656
aI757
aI429
aI-226
aI1106
aI-454
aI994
aI1168
aI375
aI147
aI-1079
aI-555
aI1430
aI1045
aI-46
aI-779
aI-206
aI-569
aI-1617
aI-653
aI-304
aI1877
aI-1564
aI-2715
aI2539
aI624
aI116
aI-824
aI-1202
aI-827
aI-1977
aI-2322
aI-1392
aI135
aI1611
aI515
aI-1370
aI-999
aI-689
aI-1308
aI3049
aI1001
aI2092
aI122
aI-3301
aI-321
aI481
aI940
aI-141
aI941
aI-1720
aI-683
aI782
aI227
aI544
aI-352
aI-121
aI291
aI-135
aI145
aI2455
aI-848
aI755
aI-26
aI-652
aI-2043
aI798
aI1051
aI2526
aI1406
aI-1743
aI753
aI-324
aI234
aI-335
aI630
aI-2550
aI-1141
aI-1650
aI1163
aI-1185
aI-15
aI-462
aI-1356
aI1517
aI-89
aI-2056
aI-2829
aI-480
aI672
aI147
aI-2624
aI661
aI-594
aI-1220
aI-1621
aI-1140
aI832
aI558
aI733
aI1487
aI-445
aI741
aI-1832
aI-149
aI1241
aI849
aI-158
aI352
aI67
aI-1842
aI-596
aI215
aI429
aI-870
aI-377
aI371
aI-847
aI484
aI-293
aI2117
aI347
aI-1752
aI-1600
aI23
aI-586
aI795
aI567
aI-4501
aI-1921
aI-1388
aI-1688
aI2461
aI609
aI415
aI818
aI-564
aI-117
aI3182
aI-2202
aI711
aI-422
aI1843
aI61
aI-1894
aI-1110
aI-2419
aI783
aI-245
aI-220
aI-12
aI756
aI1196
aI1982
aI-1083
aI326
aI1579
aI-600
aI-16
aI-2060
aI300
aI57
aI1012
aI611
aI-2286
aI-850
aI1067
aI-1124
aI2103
aI-359
aI903
aI1236
aI520
aI2080
aI843
aI1104
aI-462
aI-405
aI-2215
aI-327
aI-548
aI1349
aI-461
aI2949
aI-2312
aI1062
aI-570
aI1404
aI774
aI1656
aI-623
aI-1629
aI1762
aI-3070
aI12
aI46
aI-862
aI-389
aI-1256
aI-987
aI2033
aI723
aI-485
aI-1653
aI21
aI-1847
aI-434
aI2110
aI-1224
aI919
aI-1251
aI804
aI175
aI170
aI1555
aI-1563
aI1264
aI981
aI1416
aI-1115
aI951
aI-271
aI201
aI-1621
aI649
aI1229
aI-1331
aI2089
aI-1173
aI-1323
aI-1124
aI457
aI-1384
aI-696
aI176
aI1369
aI-1360
aI-221
aI-1027
aI-810
aI1036
aI4966
aI-979
aI1026
aI-778
aI1321
aI-928
aI650
aI1545
aI-430
aI2346
aI-1561
aI715
aI537
aI-391
aI149
aI-1881
aI2141
aI1586
aI1487
aI-918
aI-927
aI552
aI-425
aI-1189
aI-818
aI338
aI-1022
aI151
aI-282
aI-1465
aI463
aI90
aI462
aI-1691
aI44
aI-1160
aI-4220
aI951
aI-332
aI360
aI526
aI-3052
aI661
aI2189
aI785
aI-268
aI-1531
aI-521
aI174
aI2351
aI-461
aI929
aI1552
aI-1982
aI603
aI-288
aI3487
aI2060
aI-104
aI901
aI95
aI1178
aI-3306
aI79
aI-1016
aI-195
aI1980
aI1828
aI126
aI-332
aI-1140
aI1648
aI-406
aI1206
aI-888
aI-1635
aI-1952
aI1479
aI-689
aI-540
aI2431
aI1037
aI1704
aI-57
aI737
aI-2688
aI3145
aI470
aI-13
aI185
aI-495
aI1958
aI-439
aI591
aI-1586
aI-984
aI680
aI631
aI2938
aI882
aI326
aI495
aI-353
aI-1185
aI-147
aI-1359
aI857
aI2603
aI4119
aI-3123
aI20
aI-767
aI-204
aI-994
aI-598
aI-318
aI1315
aI15
aI-711
aI674
aI-2280
aI-248
aI-98
aI-2348
aI1623
aI-777
aI631
aI-211
aI-318
aI-20
aI668
aI445
aI-314
aI2749
aI-1882
aI-248
aI-1761
aI609
aI250
aI1665
aI-779
aI-338
aI-153
aI-233
aI-175
aI-1873
aI-114
aI-133
aI841
aI2345
aI-807
aI-1090
aI-1840
aI-1476
aI48
aI1433
aI3258
aI-1735
aI1647
aI-1351
aI2645
aI-761
aI-1118
aI-2004
aI-563
aI-858
aI-649
aI-632
aI-650
aI1943
aI-1082
aI1581
aI2166
aI-513
aI-2119
aI1829
aI-1663
aI1418
aI-779
aI-704
aI-184
aI1751
aI748
aI1474
aI321
aI-717
aI-2611
aI-1426
aI1142
aI-2208
aI130
aI-448
aI1620
aI-30
aI615
aI-2397
aI-1694
aI1304
aI685
aI1499
aI703
aI1768
aI-2633
aI-1196
aI-167
aI-507
aI-1810
aI3288
aI362
aI18
aI-1166
aI-1888
aI-941
aI2058
aI-1550
aI-1212
aI617
aI554
aI621
aI305
aI293
aI-285
aI2046
aI2207
aI-857
aI-1608
aI3488
aI-495
aI-47
aI595
aI-1927
aI971
aI285
aI-1354
aI-2021
aI-400
aI381
aI990
aI3651
aI952
aI585
aI-700
aI1515
aI2557
aI1031
aI-621
aI-1166
aI405
aI-75
aI275
aI-464
aI234
aI821
aI-1517
aI2379
aI2499
aI2071
aI-1239
aI1736
aI241
aI2295
aI924
aI593
aI759
aI-3210
aI-361
aI872
aI65
aI761
aI968
aI-187
aI-293
aI638
aI1585
aI2081
aI999
aI-2915
aI2135
aI-1209
aI-453
aI1304
aI644
aI1368
aI251
aI-880
aI-1128
aI-791
aI2583
aI-820
aI379
aI1394
aI108
aI216
aI-868
aI-1870
aI1255
aI-420
aI1038
aI1474
aI-620
aI-335
aI-22
aI-2195
aI781
aI61
aI2521
aI960
aI-2996
aI1174
aI-2436
aI-409
aI-2137
aI370
aI-938
aI-902
aI1088
aI-298
aI1668
aI-230
aI-1520
aI-1966
aI-726
aI306
aI-816
aI-514
aI1539
aI-283
aI-1468
aI-2263
aI2390
aI287
aI-788
aI-516
aI1470
aI-2515
aI922
aI664
aI-1581
aI508
aI1113
aI-247
aI-486
aI-369
aI22
aI-1812
aI406
aI-2102
aI69
aI-598
aI1921
aI-128
aI2097
aI-1873
aI-63
aI43
aI1656
aI2085
aI-1046
aI1257
aI150
aI643
aI224
aI1266
aI-786
aI-415
aI-1615
aI1652
aI-499
aI-2937
aI161
aI-2706
aI650
aI-2105
aI4051
aI-267
aI2037
aI392
aI-349
aI2693
aI-2629
aI1762
aI456
aI-2207
aI1144
aI183
aI1090
aI-1741
aI-936
aI-983
aI-727
aI2318
aI-610
aI1711
aI-567
aI-1906
aI-1916
aI-1300
aI-918
aI2603
aI1259
aI-800
aI1668
aI-2272
aI-1135
aI-1353
aI-2386
aI-3129
aI681
aI1572
aI-767
aI841
aI-1434
aI837
aI-931
aI-2932
aI-1188
aI-1011
aI2591
aI2450
aI-1190
aI2235
aI352
aI-326
aI2752
aI735
aI1784
aI1917
aI444
aI-1929
aI1213
aI-1587
aI-698
aI23
aI-2056
aI786
aI-380
aI1330
aI1890
aI-1421
aI92
aI-258
aI1767
aI-220
aI200
aI-1212
aI-2129
aI1533
aI-997
aI-1369
aI-540
aI1380
aI-2028
aI1136
aI1070
aI1451
aI1375
aI-1085
aI825
aI-588
aI1030
aI-1570
aI-488
aI1097
aI-1554
aI-134
aI510
aI-494
aI250
aI-2505
aI-2998
aI-1018
aI-61
aI79
aI1694
aI-185
aI2007
aI-1215
aI-500
aI-1493
aI-357
aI-353
aI218
aI1104
aI603
aI-181
aI632
aI504
aI-567
aI77
aI2273
aI-237
aI427
aI-914
aI446
aI2004
aI-726
aI475
aI372
aI2768
aI-482
aI-1542
aI-1840
aI1203
aI692
aI-74
aI-1862
aI460
aI-1764
aI-772
aI-2569
aI532
aI-266
aI-1372
aI1797
aI2588
aI-1264
aI-1221
aI-73
aI-224
aI739
aI-1044
aI-1099
aI242
aI2672
aI-346
aI-1765
aI1388
aI-655
aI-316
aI-2049
aI352
aI1355
aI-245
aI-148
aI1265
aI-1
aI2719
aI653
aI-1152
aI496
aI-646
aI1096
aI-893
aI-761
aI-478
aI1418
aI-714
aI-1006
aI1616
aI-1057
aI1510
aI-857
aI1874
aI1724
aI-9
aI-1623
aI-2097
aI-972
aI1005
aI-750
aI-1346
aI864
aI-1154
aI-492
aI1055
aI2187
aI-1493
aI-992
aI1263
aI1215
aI147
aI-2375
aI-1311
aI808
aI-1429
aI-2177
aI1218
aI961
aI-946
aI374
aI835
aI-73
aI-1010
aI-220
aI-4628
aI-80
aI-1500
aI1149
aI-177
aI411
aI-872
aI-179
aI-1651
aI-998
aI-969
aI836
aI503
aI-2447
aI-2084
aI173
aI1734
aI-9
aI-359
aI2035
aI-553
aI-650
aI2653
aI-48
aI-997
aI794
aI-243
aI1870
aI813
aI143
aI1175
aI559
aI-840
aI205
aI-320
aI1339
aI-916
aI2467
aI-136
aI-433
aI-897
aI-229
aI-2911
aI826
aI2668
aI-773
aI1138
aI198
aI324
aI-955
aI1386
aI347
aI-1308
aI-390
aI-452
aI-213
aI1452
aI-211
aI2219
aI-1400
aI1831
aI0
aI-1121
aI-100
aI430
aI674
aI-732
aI1251
aI2145
aI1778
aI-1127
aI1151
aI610
aI36
aI-377
aI1637
aI-159
aI-863
aI-2308
aI-1194
aI189
aI-425
aI1436
aI900
aI-45
aI64
aI-2883
aI-817
aI274
aI3299
aI-2277
aI-218
aI-258
aI1191
aI-126
aI159
aI-434
aI1093
aI-560
aI430
aI-467
aI-43
aI2502
aI-322
aI-1188
aI1779
aI-1295
aI2934
aI-355
aI-2397
aI-212
aI-962
aI2218
aI1560
aI4339
aI807
aI1244
aI804
aI-1402
aI-1042
aI1090
aI-2166
aI1879
aI1731
aI1746
aI-2635
aI1535
aI-1903
aI-1204
aI-2503
aI3084
aI-100
aI1178
aI75
aI-774
aI-1953
aI-1457
aI358
aI-1693
aI-686
aI2948
aI177
aI-2024
aI1330
aI-1125
aI-432
aI847
aI-1193
aI958
aI1581
aI-282
aI-473
aI58
aI1530
aI528
aI539
aI-1359
aI-457
aI99
aI951
aI540
aI1770
aI-738
aI293
aI-1549
aI2934
aI-258
aI-2242
aI1917
aI-10
aI1576
aI1453
aI97
aI112
aI255
aI-1041
aI2468
aI-275
aI-1291
aI729
aI-830
aI735
aI-653
aI1013
aI-979
aI-524
aI440
aI2231
aI-1134
aI-846
aI-397
aI-2835
aI798
aI-1599
aI-901
aI1837
aI-1028
aI1336
aI1868
aI-613
aI736
aI-3371
aI1992
aI-1285
aI1170
aI-90
aI845
aI477
aI429
aI2714
aI377
aI500
aI-566
aI594
aI607
aI-378
aI-718
aI2156
aI-125
aI-4384
aI-593
aI749
aI2890
aI1783
aI791
aI124
aI973
aI-1077
aI521
aI538
aI671
aI1118
aI1481
aI-3126
aI-1253
aI362
aI-2018
aI-685
aI2167
aI858
aI1852
aI-1040
aI843
aI390
aI326
aI1360
aI939
aI1130
aI-403
aI1886
aI-20
aI6
aI1195
aI1704
aI-1210
aI-414
aI-2024
aI1078
aI1968
aI-679
aI95
aI817
aI-1047
aI1309
aI-571
aI-226
aI559
aI1075
aI2464
aI2385
aI400
aI-344
aI-2182
aI100
aI-2603
aI-538
aI414
aI2211
aI-208
aI2148
aI-1333
aI-2833
aI1543
aI-333
aI764
aI-593
aI-665
aI-1136
aI-3077
aI-100
aI172
aI601
aI-1131
aI805
aI-767
aI1944
aI-376
aI482
aI730
aI-2463
aI-941
aI-754
aI-1588
aI2306
aI-35
aI615
aI2226
aI-1275
aI550
aI414
aI251
aI-600
aI1842
aI-634
aI2350
aI-3907
aI969
aI315
aI327
aI2341
aI-531
aI2092
aI-260
aI9
aI-232
aI2797
aI314
aI-1687
aI-728
aI-500
aI-691
aI-1816
aI-1312
aI1102
aI770
aI-828
aI346
aI1168
aI178
aI1997
aI1588
aI-1704
aI1348
aI-1492
aI-135
aI1626
aI290
aI-167
aI422
aI-975
aI-409
aI-869
aI-290
aI2089
aI-545
aI804
aI-469
aI-631
aI-367
aI2596
aI411
aI-2493
aI741
aI-379
aI183
aI226
aI169
aI-1840
aI883
aI-1690
aI-345
aI656
aI1661
aI1125
aI426
aI-432
aI-205
aI968
aI76
aI-1486
aI-1230
aI1436
aI-1903
aI1269
aI-738
aI52
aI1936
aI-1726
aI-2307
aI-3244
aI-964
aI2469
aI-642
aI2292
aI-1811
aI1879
aI-1382
aI-712
aI2020
aI-322
aI-1825
aI-2311
aI1284
aI-388
aI534
aI1943
aI-364
aI-499
aI-150
aI1475
aI502
aI2495
aI-429
aI723
aI1070
aI-2128
aI85
aI279
aI1454
aI588
aI427
aI-226
aI2634
aI-752
aI-1335
aI1031
aI-648
aI256
aI-949
aI796
aI-154
aI2194
aI97
aI-3012
aI-1857
aI-704
aI163
aI-388
aI87
aI318
aI-735
aI88
aI833
aI81
aI-1215
aI308
aI1133
aI-1163
aI1293
aI1798
aI-1091
aI-1112
aI2257
aI-763
aI2412
aI412
aI-704
aI148
aI721
aI1353
aI824
aI-1289
aI441
aI-1597
aI-764
aI-1884
aI1216
aI-2283
aI-151
aI-4534
aI1055
aI2846
aI1005
aI-663
aI-733
aI-738
aI61
aI198
aI-56
aI-208
aI-751
aI-1019
aI1399
aI3330
aI-247
aI297
aI-950
aI-1722
aI981
aI-1016
aI-1920
aI1821
aI-1475
aI2078
aI1487
aI-1878
aI-531
aI-1083
aI-231
aI851
aI-363
aI-1265
aI44
aI-283
aI145
aI2698
aI458
aI945
aI978
aI-366
aI-1091
aI2112
aI882
aI-1449
aI-669
aI2301
aI-731
aI-2034
aI-4098
aI2120
aI2369
aI1649
aI3100
aI-1814
aI9
aI-2485
aI34
aI959
aI1609
aI-2309
aI-1044
aI2412
aI1195
aI168
aI-212
aI-1224
aI-174
aI1404
aI226
aI-2026
aI-4129
aI2997
aI154
aI-987
aI1438
aI-1501
aI-987
aI-1631
aI-319
aI-1825
aI141
aI-707
aI-801
aI2717
aI-417
aI1174
aI1267
aI-715
aI-3042
aI-764
aI-1445
aI-99
aI-309
aI-2917
aI672
aI-1307
aI939
aI1014
aI604
aI1066
aI1482
aI-1801
aI611
aI370
aI-2085
aI456
aI-96
aI-317
aI-1361
aI166
aI271
aI-170
aI-4017
aI-1799
aI-1547
aI-723
aI-1569
aI1635
aI402
aI1701
aI904
aI330
aI1104
aI1166
aI129
aI-231
aI2198
aI4275
aI3251
aI-1457
aI2396
aI-132
aI1109
aI2036
aI1919
aI1728
aI2081
aI1144
aI-1884
aI837
aI1151
aI-497
aI-1649
aI-1871
aI1713
aI-1155
aI-444
aI-3027
aI-1541
aI-1457
aI1364
aI1900
aI335
aI-891
aI953
aI-869
aI1531
aI-202
aI-35
aI-3467
aI1527
aI2633
aI-1529
aI1119
aI7
aI1191
aI-946
aI-1212
aI536
aI202
aI-1931
aI-1743
aI664
aI97
aI378
aI313
aI496
aI-304
aI-1228
aI-150
aI-1338
aI-627
aI104
aI-746
aI-412
aI-439
aI-136
aI-1555
aI1362
aI1727
aI18
aI-627
aI338
aI-206
aI-1243
aI-635
aI1351
aI530
aI303
aI2
aI-624
aI506
aI971
aI1022
aI2623
aI691
aI1164
aI-301
aI994
aI-1501
aI489
aI2109
aI1264
aI1523
aI-244
aI369
aI87
aI1900
aI-1368
aI-1666
aI-2552
aI-838
aI1196
aI1243
aI-196
aI-1551
aI1579
aI108
aI784
aI-1538
aI-1213
aI-958
aI179
aI675
aI-2649
aI-586
aI562
aI986
aI771
aI1117
aI1219
aI1182
aI-220
aI618
aI-413
aI373
aI-1736
aI1971
aI-844
aI1059
aI2071
aI-2716
aI-1097
aI1431
aI3093
aI-519
aI2771
aI-1659
aI47
aI-1667
aI-580
aI-1442
aI1738
aI16
aI-2167
aI261
aI-1642
aI-441
aI1110
aI-482
aI-318
aI493
aI-3336
aI-1838
aI399
aI2263
aI-1241
aI287
aI712
aI396
aI2604
aI-56
aI2141
aI435
aI1647
aI-804
aI-817
aI1891
aI311
aI-2553
aI-94
aI-1887
aI682
aI-247
aI-1404
aI1321
aI905
aI-486
aI-481
aI657
aI1967
aI685
aI-2028
aI-1809
aI-924
aI-1811
aI-677
aI389
aI1537
aI726
aI-87
aI-1252
aI-3247
aI-2402
aI-1197
aI366
aI1458
aI-906
aI1670
aI-5
aI2246
aI519
aI2712
aI-1270
aI-2354
aI389
aI-1131
aI-507
aI-1413
aI2128
aI1228
aI-67
aI69
aI-1049
aI584
aI-772
aI1134
aI-1659
aI-870
aI2043
aI-1181
aI675
aI-550
aI-1041
aI-435
aI-95
aI1877
aI-2805
aI763
aI-2250
aI-1429
aI1362
aI46
aI-2324
aI-3274
aI1916
aI-2572
aI-74
aI-443
aI1021
aI-944
aI1741
aI-875
aI-1338
aI605
aI463
aI525
aI-2669
aI-2185
aI-262
aI2127
aI-82
aI-1014
aI684
aI-880
aI-1518
aI1663
aI342
aI500
aI-1134
aI-511
aI-1731
aI-763
aI-765
aI-987
aI-387
aI-572
aI2412
aI-2024
aI257
aI-816
aI-217
aI-1112
aI304
aI-2446
aI-444
aI1402
aI434
aI933
aI-180
aI-737
aI875
aI855
aI-1595
aI-1348
aI-1786
aI832
aI-671
aI3100
aI-947
aI-982
aI-1312
aI-2353
aI-1976
aI-1296
aI342
aI412
aI1866
aI49
aI1610
aI3234
aI-1715
aI-371
aI-1490
aI-1684
aI-1570
aI-290
aI1882
aI141
aI711
aI-1056
aI-387
aI-667
aI-155
aI796
aI1697
aI709
aI2703
aI-1740
aI297
aI939
aI-243
aI-318
aI-4549
aI2138
aI74
aI1951
aI-634
aI-1271
aI-475
aI937
aI835
aI3748
aI-369
aI561
aI-482
aI1997
aI554
aI1010
aI-2179
aI14
aI-680
aI1323
aI17
aI-1697
aI-2085
aI-1086
aI2294
aI-604
aI-2049
aI1219
aI-1043
aI355
aI624
aI-129
aI-2083
aI3357
aI-76
aI1612
aI2779
aI-33
aI1309
aI-334
aI-397
aI414
aI1872
aI-547
aI1639
aI1509
aI-1816
aI-475
aI-1436
aI445
aI-757
aI-860
aI1111
aI1040
aI1149
aI-666
aI-750
aI1322
aI2778
aI-556
aI-2303
aI-902
aI-2608
aI-1219
aI48
aI-979
aI1964
aI-1456
aI-2846
aI40
aI-176
aI213
aI-604
aI322
aI1106
aI1003
aI203
aI2057
aI599
aI-1786
aI866
aI593
aI657
aI847
aI1292
aI-1965
aI3147
aI1372
aI-1443
aI-1119
aI1556
aI-194
aI-426
aI863
aI-892
aI-702
aI-1676
aI-139
aI-2432
aI-585
aI-1528
aI2093
aI1397
aI2000
aI-743
aI-1295
aI871
aI2889
aI664
aI-365
aI1327
aI858
aI-2196
aI-1126
aI-113
aI-656
aI1217
aI1431
aI-1959
aI4
aI-402
aI1013
aI-1022
aI1097
aI845
aI-3939
aI958
aI-844
aI1828
aI3272
aI3313
aI355
aI-759
aI-2076
aI-1380
aI1497
aI1993
aI-2023
aI234
aI-381
aI-506
aI607
aI-137
aI9
aI-340
aI-763
aI-2285
aI834
aI-373
aI-1504
aI899
aI-663
aI-675
aI-2042
aI263
aI-683
aI-576
aI-1950
aI3203
aI-629
aI-2326
aI924
aI14
aI461
aI-1724
aI62
aI782
aI-1343
aI-1014
aI-120
aI-857
aI-3444
aI1212
aI-318
aI-78
aI-1258
aI1929
aI399
aI760
aI1197
aI1606
aI1451
aI-374
aI1222
aI2492
aI265
aI2436
aI-553
aI-342
aI520
aI-1431
aI-718
aI2031
aI-437
aI1917
aI1414
aI-1947
aI-1314
aI893
aI1718
aI1538
aI4896
aI1232
aI749
aI-1404
aI-1240
aI-361
aI1791
aI1065
aI-183
aI1789
aI513
aI-2272
aI87
aI-1469
aI-989
aI-954
aI-1888
aI497
aI-1527
aI-107
aI-443
aI-492
aI1143
aI-2272
aI-451
aI483
aI730
aI1115
aI1013
aI1030
aI-230
aI880
aI1405
aI-1772
aI-511
aI-887
aI-1999
aI2241
aI-1551
aI1193
aI-1196
aI331
aI-2611
aI-534
aI2427
aI525
aI-470
aI-53
aI-1451
aI-1327
aI-419
aI251
aI1185
aI-943
aI1283
aI-523
aI-817
aI671
aI155
aI53
aI-644
aI-851
aI-531
aI735
aI789
aI-1420
aI-2014
aI-1682
aI42
aI288
aI492
aI2692
aI-1476
aI-1509
aI1016
aI672
aI-2367
aI2545
aI-522
aI1284
aI-2486
aI-710
aI-1189
aI504
aI1909
aI396
aI-8
aI-838
aI-2331
aI969
aI-1106
aI395
aI722
aI-1710
aI165
aI1853
aI-263
aI81
aI373
aI-59
aI2916
aI-2313
aI1501
aI-1090
aI-791
aI678
aI1491
aI1676
aI-483
aI-285
aI1450
aI1078
aI-253
aI-1390
aI-1603
aI-1101
aI-1608
aI-1240
aI-1285
aI76
aI-912
aI159
aI825
aI-623
aI1322
aI640
aI1290
aI-1213
aI1948
aI-1073
aI-4259
aI1037
aI-144
aI-237
aI2062
aI504
aI-510
aI1581
aI-1508
aI1308
aI-1012
aI1184
aI84
aI728
aI2502
aI-659
aI1265
aI58
aI253
aI-16
aI528
aI612
aI278
aI-350
aI687
aI1316
aI-318
aI2516
aI431
aI-1030
aI74
aI-1027
aI1879
aI-301
aI-2875
aI583
aI-608
aI-1646
aI3278
aI105
aI-142
aI2451
aI-818
aI-25
aI2335
aI238
aI-2245
aI-1669
aI426
aI874
aI68
aI101
aI-803
aI1682
aI-1054
aI403
aI1312
aI-870
aI-2686
aI2071
aI-2222
aI-728
aI553
aI1256
aI219
aI100
aI2084
aI-1391
aI-394
aI-17
aI845
aI-424
aI2779
aI73
aI-2205
aI2318
aI2456
aI1030
aI-2275
aI2309
aI1180
aI883
aI-2656
aI-1740
aI-1910
aI-508
aI1181
aI-821
aI3200
aI636
aI422
aI-1556
aI-306
aI-715
aI-1512
aI632
aI1564
aI-1830
aI-503
aI975
aI1054
aI-760
aI-407
aI-176
aI-1766
aI2118
aI436
aI3372
aI2202
aI2626
aI1856
aI434
aI-1795
aI554
aI1723
aI-1989
aI552
aI164
aI1195
aI1659
aI-232
aI815
aI1732
aI-1199
aI1587
aI196
aI-482
aI1065
aI-95
aI-403
aI42
aI422
aI1480
aI-1299
aI2074
aI2480
aI-2444
aI-2107
aI1811
aI1165
aI456
aI-371
aI356
aI-1871
aI-1272
aI-126
aI-4353
aI569
aI2154
aI-127
aI-19
aI-1224
aI1618
aI655
aI-935
aI-1657
aI1375
aI22
aI517
aI868
aI-551
aI509
aI267
aI140
aI826
aI2134
aI985
aI-710
aI110
aI-154
aI2413
aI-560
aI418
aI418
aI-437
aI-503
aI1746
aI750
aI-938
aI1652
aI-1562
aI-97
aI-591
aI-1021
aI241
aI-848
aI-23
aI-822
aI-1676
aI-766
aI802
aI849
aI1431
aI-2032
aI-64
aI2023
aI1140
aI-1169
aI294
aI-1682
aI917
aI-866
aI1285
aI417
aI-284
aI652
aI3603
aI-2019
aI2495
aI-494
aI2387
aI-1855
aI937
aI-510
aI1001
aI2349
aI-43
aI72
aI-1834
aI-532
aI628
aI-1263
aI-1230
aI2152
aI-1272
aI17
aI77
aI-1578
aI-1564
aI-381
aI-712
aI-811
aI-1013
aI1073
aI-302
aI1156
aI-1012
aI3548
aI-1873
aI-26
aI1673
aI-2142
aI895
aI-1886
aI-307
aI-2046
aI-528
aI180
aI4
aI1947
aI-1899
aI2361
aI-1058
aI-218
aI-1182
aI1208
aI-2102
aI-1219
aI3313
aI-2372
aI1253
aI-1796
aI897
aI-337
aI108
aI221
aI832
aI195
aI26
aI-1246
aI-1887
aI794
aI1051
aI-1207
aI1237
aI-3017
aI-158
aI-933
aI2723
aI-446
aI-929
aI3438
aI-638
aI477
aI1283
aI-2501
aI-793
aI-504
aI670
aI-2150
aI-961
aI818
aI-143
aI46
aI1191
aI-825
aI-2375
aI1088
aI-2263
aI3003
aI1221
aI728
aI1083
aI-1039
aI1712
aI-515
aI2191
aI506
aI852
aI-1148
aI-1450
aI-872
aI169
aI584
aI-849
aI-1480
aI-1352
aI1249
aI473
aI-1203
aI-979
aI755
aI-1499
aI-3
aI-2367
aI-638
aI607
aI-979
aI1336
aI-332
aI1970
aI-600
aI-1641
aI-479
aI-316
aI571
aI913
aI3082
aI774
aI-3061
aI1224
aI1592
aI1755
aI2267
aI222
aI388
aI6
aI-2694
aI1269
aI-1897
aI-1931
aI-1036
aI885
aI236
aI-574
aI1914
aI-897
aI389
aI-1220
aI83
aI338
aI-2303
aI-1796
aI1102
aI-922
aI-1506
aI-89
aI-1476
aI-759
aI1184
aI-1957
aI490
aI1426
aI760
aI1069
aI1209
aI-1540
aI119
aI-1911
aI1303
aI-270
aI2133
aI-599
aI-231
aI-1680
aI1840
aI1314
aI-350
aI592
aI-126
aI-773
aI803
aI-134
aI128
aI-1810
aI565
aI379
aI-794
aI-3007
aI-517
aI-953
aI682
aI1179
aI1593
aI-818
aI1997
aI738
aI-739
aI-464
aI244
aI-3377
aI2128
aI2134
aI-305
aI1057
aI1347
aI-443
aI3069
aI-1384
aI-2313
aI285
aI505
aI762
aI611
aI20
aI1835
aI-1805
aI-75
aI-1587
aI-155
aI40
aI309
aI114
aI1003
aI-1562
aI969
aI-329
aI-1761
aI184
aI2697
aI-209
aI-375
aI-1700
aI512
aI852
aI824
aI-227
aI-613
aI339
aI-1293
aI1694
aI1847
aI-1039
aI1353
aI-744
aI-447
aI819
aI-1023
aI468
aI212
aI-1095
aI432
aI-495
aI-1763
aI1912
aI-565
aI225
aI-490
aI1833
aI203
aI1887
aI-989
aI1597
aI698
aI970
aI-2239
aI331
aI1353
aI1651
aI366
aI1255
aI696
aI-1565
aI-973
aI286
aI-253
aI-3094
aI-1468
aI904
aI302
aI133
aI2388
aI288
aI-1711
aI-6
aI1922
aI1208
aI-650
aI561
aI2597
aI443
aI1027
aI236
aI-974
aI-32
aI2013
aI-2967
aI-273
aI2767
aI-394
aI246
aI320
aI92
aI-286
aI4035
aI978
aI-812
aI-73
aI-530
aI-1048
aI493
aI-1459
aI326
aI733
aI-17
aI-1892
aI2153
aI2134
aI-50
aI-1378
aI1470
aI-1142
aI-407
aI2459
aI-143
aI251
aI-1047
aI-1461
aI-1322
aI2141
aI1227
aI1028
aI1094
aI1564
aI-556
aI409
aI-28
aI-2162
aI-492
aI326
aI-2017
aI3589
aI680
aI-290
aI-1104
aI-645
aI-674
aI-957
aI-635
aI-697
aI-3877
aI-1951
aI2598
aI-380
aI529
aI-940
aI908
aI1128
aI47
aI-1370
aI-90
aI-2642
aI1152
aI165
aI-2154
aI-586
aI268
aI-95
aI994
aI-721
aI903
aI3360
aI241
aI-846
aI78
aI178
aI1091
aI1196
aI419
aI500
aI-856
aI-4055
aI-825
aI559
aI-974
aI228
aI1437
aI1327
aI-1639
aI-79
aI576
aI2511
aI-1030
aI1769
aI-872
aI-375
aI3172
aI-1208
aI162
aI-86
aI-166
aI-998
aI-444
aI-664
aI-964
aI-1483
aI1042
aI-1141
aI974
aI-540
aI-878
aI1925
aI640
aI-85
aI775
aI967
aI-2163
aI914
aI74
aI3919
aI-1421
aI671
aI-1730
aI678
aI-300
aI1928
aI185
aI-785
aI-2788
aI-1036
aI-1293
aI292
aI-231
aI-24
aI-809
aI-535
aI-1560
aI-1703
aI1321
aI-1710
aI-1137
aI-3061
aI2552
aI-212
aI550
aI614
aI-553
aI-982
aI1337
aI-42
aI492
aI-1925
aI-1185
aI523
aI-946
aI635
aI1642
aI1450
aI352
aI926
aI-64
aI-226
aI423
aI462
aI522
aI-43
aI959
aI-188
aI536
aI2563
aI-2216
aI-934
aI-2309
aI-468
aI-2076
aI-386
aI-1275
aI1143
aI-524
aI-808
aI812
aI-692
aI-3073
aI-1088
aI-2555
aI698
aI587
aI-175
aI-2479
aI2036
aI948
aI-1288
aI1821
aI1868
aI920
aI1516
aI-2594
aI-476
aI-2717
aI1675
aI-86
aI46
aI705
aI144
aI-2580
aI-1591
aI1464
aI-1476
aI1754
aI711
aI2541
aI772
aI-731
aI1489
aI-421
aI-1640
aI415
aI-340
aI571
aI-634
aI1702
aI1130
aI2701
aI-586
aI-1547
aI-1885
aI2314
aI-822
aI915
aI-150
aI-245
aI439
aI-1272
aI248
aI597
aI-258
aI-1964
aI-295
aI-1055
aI2090
aI-721
aI948
aI344
aI260
aI2414
aI-59
aI-44
aI508
aI-2057
aI-497
aI-15
aI-1301
aI-1662
aI-1208
aI-1233
aI-634
aI2008
aI-695
aI-2404
aI2478
aI-1298
aI583
aI330
aI2882
aI506
aI1652
aI-471
aI-605
aI-655
aI-2160
aI-420
aI-1523
aI215
aI-508
aI-547
aI862
aI610
aI7
aI519
aI-251
aI680
aI1413
aI-814
aI1375
aI1011
aI1833
aI-2344
aI-1301
aI3433
aI-399
aI1622
aI-341
aI-4297
aI680
aI-3180
aI-205
aI3383
aI-786
aI2972
aI-225
aI-451
aI-747
aI-239
aI417
aI891
aI1988
aI-378
aI-2402
aI933
aI-564
aI-2085
aI-2370
aI854
aI38
aI2665
aI-974
aI2790
aI706
aI-1022
aI1435
aI-2216
aI375
aI-2873
aI1084
aI-847
aI-2435
aI2474
aI-1197
aI571
aI2133
aI45
aI-1705
aI120
aI1596
aI1050
aI-1685
aI939
aI931
aI1761
aI2152
aI-2760
aI1723
aI-914
aI1139
aI-227
aI-1076
aI88
aI-689
aI1192
aI-1526
aI-2087
aI752
aI-189
aI1447
aI-1523
aI-150
aI854
aI-1357
aI1137
aI-1346
aI1096
aI480
aI-2913
aI-1715
aI1278
aI-103
aI1667
aI-988
aI445
aI1582
aI-1020
aI153
aI1799
aI98
aI-72
aI-518
aI1421
aI-64
aI1579
aI-2429
aI-2784
aI-1805
aI1152
aI1087
aI634
aI-1411
aI158
aI-190
aI-2442
aI-1585
aI1123
aI-793
aI1257
aI1735
aI-654
aI-843
aI-1220
aI962
aI252
aI300
aI2711
aI-367
aI-3067
aI662
aI1037
aI1281
aI-1887
aI-411
aI-1746
aI281
aI-513
aI309
aI-855
aI-322
aI870
aI-271
aI3423
aI28
aI-999
aI-147
aI-1015
aI439
aI69
aI-945
aI458
aI2013
aI624
aI-401
aI3150
aI-316
aI-971
aI-1600
aI-2505
aI-1467
aI141
aI1653
aI-2184
aI893
aI486
aI495
aI1221
aI571
aI1165
aI-630
aI-2546
aI-1302
aI1540
aI897
aI-953
aI228
aI478
aI638
aI2669
aI922
aI-1480
aI2230
aI-518
aI377
aI-1573
aI-2667
aI2655
aI-1036
aI-1703
aI-369
aI-1846
aI-1345
aI-1026
aI-1274
aI-337
aI-400
aI443
aI-2347
aI1041
aI-1158
aI-16
aI-1976
aI2164
aI-230
aI-171
aI-941
aI-110
aI1948
aI-801
aI-240
aI-332
aI-315
aI-1003
aI452
aI1310
aI-1305
aI-839
aI647
aI-820
aI-562
aI4592
aI-702
aI583
aI-839
aI1342
aI-1209
aI574
aI-1130
aI-3088
aI-1099
aI1607
aI-1706
aI-676
aI851
aI1940
aI1816
aI-3365
aI-327
aI-967
aI184
aI-2023
aI297
aI133
aI2489
aI-354
aI1479
aI549
aI-1166
aI-1436
aI-1166
aI2532
aI1054
aI-380
aI2124
aI-660
aI-806
aI940
aI-286
aI2331
aI1464
aI-2472
aI-189
aI1244
aI-1475
aI386
aI352
aI450
aI-735
aI817
aI-1504
aI-1289
aI113
aI-327
aI-1151
aI553
aI1165
aI-1643
aI-1258
aI1535
aI2784
aI1068
aI-678
aI154
aI-45
aI-1048
aI662
aI-26
aI-1735
aI-988
aI298
aI1006
aI1049
aI1063
aI-2408
aI-4557
aI-1017
aI1273
aI1026
aI1007
aI787
aI-789
aI1774
aI764
aI1133
aI1356
aI-760
aI-407
aI-1430
aI-582
aI-793
aI-1098
aI-92
aI608
aI546
aI-896
aI1337
aI1378
aI696
aI-363
aI1198
aI-2367
aI-1627
aI22
aI-1654
aI674
aI493
aI3893
aI-418
aI1060
aI832
aI-1721
aI-582
aI501
aI-1827
aI-1996
aI-503
aI1245
aI-1294
aI1466
aI-269
aI3390
aI697
aI1727
aI127
aI488
aI-1976
aI-1485
aI2252
aI1018
aI-1597
aI-548
aI-331
aI1773
aI-1430
aI-301
aI-614
aI612
aI307
aI-1776
aI1101
aI2377
aI255
aI-3597
aI-2514
aI-69
aI-819
aI-1473
aI2919
aI-324
aI-351
aI1574
aI-65
aI-737
aI761
aI-969
aI-526
aI-715
aI-3535
aI-1867
aI1419
aI-2692
aI-463
aI2230
aI723
aI-203
aI1302
aI391
aI1098
aI-1264
aI1643
aI-3958
aI945
aI-218
aI62
aI1442
aI-1966
aI-1127
aI-1853
aI2088
aI-686
aI-1296
aI-1098
aI3921
aI2569
aI-30
aI-81
aI-2771
aI-2114
aI-2444
aI2188
aI872
aI-1603
aI82
aI-1277
aI-2589
aI-2075
aI-261
aI698
aI91
aI3368
aI2315
aI-2425
aI-268
aI1099
aI1795
aI-1459
aI1133
aI-682
aI-478
aI-1558
aI817
aI-982
aI-1239
aI-1067
aI458
aI-88
aI-335
aI356
aI-754
aI-1734
aI-2501
aI3217
aI-625
aI464
aI641
aI578
aI973
aI-2645
aI-2073
aI1467
aI-3042
aI1733
aI962
aI925
aI-2709
aI-515
aI1538
aI2454
aI2228
aI-898
aI-2367
aI973
aI1365
aI-1827
aI100
aI-2200
aI-1431
aI1879
aI1335
aI-2888
aI-37
aI656
aI-1895
aI-152
aI331
aI1692
aI163
aI-2637
aI580
aI559
aI611
aI298
aI76
aI-1289
aI147
aI2902
aI-1358
aI-82
aI-1081
aI1710
aI-32
aI-198
aI-1592
aI432
aI-753
aI-609
aI-675
aI-674
aI-978
aI-1023
aI-567
aI1588
aI246
aI2191
aI-325
aI-555
aI1017
aI-884
aI-3237
aI984
aI263
aI25
aI-1481
aI-594
aI-2437
aI827
aI1387
aI470
aI2889
aI460
aI-232
aI-1777
aI1610
aI179
aI4377
aI-40
aI-645
aI-693
aI857
aI1550
aI1730
aI-650
aI-826
aI-2805
aI1157
aI785
aI641
aI-425
aI-1268
aI597
aI-398
aI1066
aI2752
aI246
aI-1417
aI2513
aI-1495
aI-524
aI-423
aI1768
aI-2690
aI1820
aI2786
aI-171
aI-345
aI-1095
aI1190
aI-2332
aI-252
aI-1165
aI-1332
aI975
aI-2265
aI2173
aI800
aI2276
aI-2011
aI969
aI-283
aI-1047
aI1084
aI604
aI-1456
aI1151
aI-354
aI-2785
aI-2060
aI1293
aI1371
aI437
aI777
aI1889
aI1084
aI-134
aI-2272
aI982
aI-2067
aI820
aI-1919
aI-1623
aI894
aI1908
aI-457
aI-2125
aI407
aI-769
aI-2405
aI-635
aI506
aI550
aI1868
aI-334
aI2554
aI1699
aI1267
aI-146
aI1550
aI499
aI444
aI-132
aI-628
aI1787
aI-2440
aI426
aI-3233
aI-114
aI686
aI685
aI1109
aI723
aI-2248
aI-1523
aI-473
aI-207
aI-227
aI1665
aI69
aI1084
aI182
aI-1197
aI1442
aI1710
aI399
aI-744
aI921
aI-555
aI320
aI-2207
aI-634
aI2385
aI471
aI570
aI-306
aI-2432
aI-1351
aI1781
aI1693
aI1119
aI-1874
aI554
aI299
aI-1119
aI164
aI1052
aI-525
aI-1515
aI2237
aI1439
aI2830
aI-1871
aI-2072
aI-35
aI-4081
aI1183
aI1993
aI-1615
aI-114
aI1424
aI-1624
aI-1365
aI552
aI-522
aI1004
aI822
aI-912
aI1117
aI479
aI1762
aI-675
aI-728
aI-1724
aI2175
aI-1213
aI1120
aI-125
aI-405
aI-2484
aI-1497
aI1059
aI359
aI442
aI176
aI-1690
aI225
aI-865
aI-1727
aI-2292
aI2780
aI512
aI-698
aI1445
aI-1942
aI2040
aI1102
aI-1224
aI191
aI-354
aI-1175
aI2910
aI578
aI-205
aI505
aI1201
aI-1783
aI197
aI1227
aI-1066
aI1255
aI1537
aI-1008
aI564
aI-1172
aI-1278
aI-749
aI-1813
aI1080
aI-428
aI-23
aI-515
aI-1095
aI728
aI139
aI44
aI-612
aI-137
aI-907
aI-620
aI-3394
aI-441
aI-2087
aI519
aI340
aI-1365
aI419
aI-1063
aI846
aI1097
aI2062
aI-1220
aI495
aI1676
aI1077
aI-1026
aI1484
aI-19
aI470
aI590
aI856
aI1064
aI-1018
aI-5
aI189
aI-1234
aI3501
aI91
aI1622
aI637
aI711
aI1016
aI-1827
aI1773
aI-2772
aI-171
aI-1042
aI1430
aI1848
aI1103
aI2341
aI61
aI-743
aI-2826
aI332
aI611
aI1903
aI1345
aI-1444
aI1149
aI-456
aI-584
aI-215
aI1017
aI-498
aI33
aI152
aI1654
aI1460
aI-524
aI-243
aI-910
aI-121
aI-1677
aI-237
aI1901
aI176
aI-1179
aI-855
aI-2773
aI-426
aI-881
aI-1031
aI247
aI-1452
aI138
aI167
aI-936
aI-1564
aI-1743
aI-451
aI2610
aI1003
aI3168
aI-1603
aI-489
aI2797
aI-2468
aI290
aI-1158
aI357
aI106
aI-43
aI1411
aI-2577
aI66
aI1221
aI-2481
aI1442
aI2161
aI483
aI284
aI-2166
aI1164
aI411
aI-1186
aI1425
aI106
aI-298
aI-580
aI1913
aI3711
aI-2159
aI-497
aI-1275
aI-508
aI-2419
aI664
aI669
aI-3068
aI-512
aI-1041
aI-343
aI135
aI1888
aI770
aI1966
aI70
aI1273
aI1926
aI1248
aI-1702
aI1281
aI254
aI1521
aI1648
aI1253
aI-1208
aI-1888
aI839
aI2369
aI657
aI1156
aI1233
aI1217
aI-1009
aI-1467
aI-396
aI-2026
aI2352
aI657
aI1088
aI-2255
aI728
aI-283
aI2020
aI-2413
aI-1039
aI1075
aI1297
aI-784
aI-565
aI-345
aI1769
aI-3256
aI-1249
aI-470
aI188
aI2044
aI989
aI830
aI1022
aI1492
aI2637
aI-52
aI402
aI-917
aI808
aI-732
aI-2058
aI36
aI-150
aI-1985
aI3351
aI2992
aI-2196
aI1790
aI1505
aI-989
aI2175
aI335
aI-1378
aI163
aI400
aI-1190
aI-643
aI431
aI-694
aI1204
aI1912
aI142
aI-1502
aI-1525
aI-3198
aI-3354
aI-933
aI852
aI1222
aI-1634
aI727
aI-687
aI2389
aI-2615
aI1639
aI991
aI-1843
aI1844
aI-1138
aI2543
aI2433
aI1833
aI2676
aI164
aI-957
aI3374
aI473
aI-1142
aI-84
aI586
aI388
aI502
aI2698
aI246
aI277
aI344
aI-1939
aI341
aI283
aI-292
aI15
aI-3204
aI165
aI-961
aI2251
aI-2180
aI355
aI1771
aI-1712
aI394
aI-1781
aI2292
aI1964
aI-31
aI-1487
aI79
aI524
aI-1525
aI-1641
aI2074
aI-520
aI2745
aI-949
aI212
aI2119
aI3013
aI1360
aI2523
aI118
aI741
aI1587
aI-3108
aI148
aI2700
aI-37
aI-1088
aI-586
aI1203
aI2166
aI-443
aI1131
aI821
aI-1729
aI2877
aI-1569
aI-1002
aI-894
aI-1485
aI197
aI-116
aI2485
aI822
aI-1527
aI-414
aI-1998
aI1941
aI-329
aI-232
aI-405
aI-1194
aI-1516
aI-1457
aI1016
aI-1209
aI-75
aI340
aI1561
aI-304
aI-872
aI1917
aI-19
aI1658
aI307
aI-678
aI-694
aI757
aI35
aI1424
aI-1348
aI-574
aI773
aI-1090
aI235
aI662
aI2050
aI1148
aI236
aI2232
aI1129
aI526
aI-276
aI281
aI1923
aI300
aI1152
aI-2442
aI2274
aI1174
aI406
aI1400
aI-1570
aI-1544
aI392
aI-1220
aI-992
aI1628
aI-299
aI1258
aI-1018
aI1291
aI-2007
aI-748
aI-2151
aI24
aI119
aI-278
aI-1424
aI2192
aI-2232
aI-968
aI-892
aI2
aI423
aI1170
aI688
aI731
aI691
aI686
aI-1862
aI2144
aI-1117
aI2037
aI-1355
aI-243
aI1793
aI-1930
aI-1688
aI-675
aI-1065
aI-432
aI-966
aI-652
aI-536
aI2475
aI1386
aI-1236
aI717
aI68
aI3
aI57
aI-2505
aI285
aI603
aI-955
aI2581
aI685
aI-713
aI2833
aI784
aI676
aI-1468
aI591
aI2214
aI80
aI648
aI1684
aI-1192
aI17
aI1515
aI2583
aI789
aI-260
aI-1339
aI-245
aI-775
aI3314
aI663
aI391
aI2887
aI1596
aI926
aI1229
aI1697
aI912
aI230
aI954
aI-1437
aI-3503
aI1089
aI-929
aI-277
aI-1777
aI2646
aI7
aI-2127
aI-589
aI-134
aI-1162
aI2134
aI1847
aI-954
aI-291
aI1065
aI3003
aI1084
aI-385
aI-240
aI418
aI1265
aI-877
aI-1414
aI-78
aI781
aI1368
aI843
aI1749
aI337
aI1328
aI-77
aI1231
aI1457
aI265
aI-794
aI1084
aI-664
aI-1043
aI-754
aI-991
aI1642
aI-270
aI-311
aI1055
aI-79
aI-478
aI-874
aI-2974
aI-187
aI177
aI-3214
aI1645
aI1399
aI-1053
aI873
aI-1323
aI-530
aI2737
aI-2472
aI708
aI2045
aI1421
aI1599
aI-797
aI901
aI-301
aI1578
aI-314
aI1347
aI-167
aI-461
aI-451
aI3236
aI2051
aI201
aI-2800
aI-314
aI-1413
aI2139
aI-1787
aI-1066
aI-2501
aI255
aI-788
aI1747
aI1420
aI-1842
aI-1204
aI-40
aI156
aI1536
aI1486
aI1194
aI77
aI-390
aI1216
aI3337
aI-877
aI-1953
aI-1052
aI-245
aI179
aI588
aI1538
aI-306
aI-1208
aI-1071
aI-371
aI812
aI-1746
aI-1103
aI-2595
aI-950
aI-1958
aI-613
aI-2000
aI550
aI-530
aI42
aI193
aI8
aI1804
aI-2344
aI2726
aI698
aI475
aI-1629
aI-926
aI-436
aI-170
aI-177
aI3574
aI1313
aI-1683
aI-361
aI-827
aI-77
aI3330
aI1140
aI-2162
aI378
aI-1479
aI177
aI252
aI-468
aI-405
aI1234
aI385
aI-328
aI-535
aI22
aI925
aI3052
aI-84
aI-1846
aI2619
aI1292
aI1182
aI2236
aI-1138
aI2632
aI-2376
aI-2585
aI-367
aI645
aI2919
aI-200
aI-372
aI-804
aI1189
aI-1964
aI-903
aI939
aI815
aI-750
aI143
aI-51
aI918
aI2538
aI-2248
aI402
aI-1629
aI1299
aI-578
aI-2396
aI-994
aI-1240
aI-1081
aI457
aI2426
aI1478
aI-504
aI532
aI-901
aI-1481
aI-342
aI2052
aI1117
aI443
aI-1023
aI-549
aI-565
aI147
aI6
aI-2866
aI30
aI-347
aI-642
aI-2871
aI487
aI-761
aI-3262
aI-797
aI846
aI-1697
aI4165
aI1891
aI-2233
aI149
aI-920
aI738
aI1633
aI-2806
aI1378
aI931
aI561
aI-1255
aI58
aI270
aI-2988
aI3228
aI606
aI-1708
aI1267
aI2431
aI510
aI2562
aI-6
aI2032
aI932
aI522
aI977
aI-517
aI-128
aI-50
aI2262
aI1447
aI1095
aI-2722
aI-387
aI-2015
aI1834
aI556
aI1295
aI1114
aI-775
aI-1084
aI407
aI761
aI-837
aI1289
aI2844
aI-373
aI382
aI445
aI714
aI1340
aI202
aI727
aI456
aI1720
aI137
aI826
aI1374
aI-1241
aI236
aI298
aI121
aI3172
aI-630
aI360
aI1231
aI1567
aI486
aI1159
aI1443
aI571
aI298
aI551
aI-471
aI44
aI-943
aI275
aI-1699
aI182
aI-1611
aI-1268
aI-20
aI-1527
aI1450
aI899
aI-404
aI303
aI144
aI-2726
aI912
aI642
aI-1677
aI589
aI1134
aI-1036
aI-86
aI775
aI1611
aI272
aI2013
aI2038
aI791
aI115
aI342
aI-1820
aI282
aI757
aI-1841
aI-1285
aI240
aI-1044
aI-39
aI-1670
aI-1035
aI2125
aI1177
aI-2437
aI-495
aI666
aI-2578
aI898
aI-812
aI-594
aI1396
aI-1149
aI-795
aI214
aI1315
aI126
aI-1861
aI712
aI2098
aI-1704
aI-825
aI-76
aI582
aI1230
aI1231
aI1871
aI-918
aI0
aI1159
aI882
aI2781
aI1112
aI1047
aI-3176
aI302
aI-1192
aI-887
aI2242
aI-3188
aI1089
aI1934
aI-864
aI-660
aI-660
aI-1021
aI-1125
aI2162
aI491
aI1789
aI-493
aI-1062
aI-1041
aI1065
aI543
aI-2030
aI715
aI153
aI521
aI2495
aI-384
aI-1857
aI1919
aI582
aI2304
aI-768
aI-475
aI-2522
aI1418
aI4156
aI-2406
aI719
aI186
aI825
aI-1467
aI-2082
aI-1075
aI285
aI350
aI-2508
aI-2064
aI462
aI1294
aI626
aI-485
aI-1173
aI40
aI184
aI427
aI-1950
aI1248
aI-1829
aI1422
aI765
aI277
aI890
aI3032
aI-4
aI1433
aI-2314
aI-544
aI-173
aI3797
aI609
aI-485
aI1701
aI-466
aI-2012
aI506
aI-1505
aI1920
aI-293
aI436
aI305
aI-791
aI586
aI-673
aI1449
aI-385
aI408
aI1769
aI318
aI-2234
aI-800
aI1329
aI3510
aI1692
aI33
aI1525
aI2659
aI-1189
aI2342
aI812
aI851
aI-431
aI1125
aI-1107
aI462
aI2184
aI-3562
aI1493
aI795
aI-313
aI983
aI-720
aI-1404
aI-79
aI613
aI794
aI-58
aI-1206
aI-167
aI-781
aI909
aI24
aI329
aI790
aI1701
aI-2352
aI3208
aI-490
aI-1604
aI2422
aI-697
aI1928
aI867
aI-571
aI-421
aI-195
aI1744
aI-2181
aI492
aI-1308
aI2636
aI-763
aI-374
aI1314
aI2514
aI2808
aI-870
aI34
aI-1325
aI-572
aI728
aI-393
aI1271
aI500
aI651
aI-1328
aI-17
aI-769
aI-1183
aI1040
aI-299
aI771
aI-1081
aI1896
aI-1054
aI-129
aI1017
aI682
aI1056
aI868
aI2183
aI61
aI1603
aI-1340
aI-115
aI1163
aI-419
aI1410
aI-1772
aI-609
aI-27
aI1609
aI-1058
aI1576
aI1682
aI-551
aI1546
aI941
aI640
aI768
aI-2687
aI548
aI697
aI-291
aI-122
aI1672
aI-233
aI-223
aI746
aI1637
aI592
aI-1094
aI436
aI-464
aI77
aI-18
aI-1757
aI-8
aI4109
aI-187
aI351
aI-471
aI-747
aI1219
aI-2547
aI1454
aI-176
aI-1317
aI1687
aI-6
aI-5
aI2255
aI1731
aI346
aI1167
aI-14
aI1743
aI1393
aI-1206
aI579
aI718
aI-524
aI543
aI624
aI1078
aI1722
aI297
aI-326
aI-2741
aI2065
aI-17
aI-524
aI-225
aI2860
aI2760
aI754
aI-1757
aI1314
aI-1042
aI-733
aI939
aI-638
aI1829
aI1153
aI1948
aI550
aI471
aI-1560
aI-778
aI2037
aI1938
aI-525
aI-796
aI-3005
aI-645
aI-267
aI1049
aI1465
aI1195
aI-1643
aI961
aI890
aI-2163
aI-474
aI-1806
aI-1029
aI-1596
aI-71
aI273
aI-381
aI858
aI100
aI240
aI-1665
aI-2244
aI-17
aI623
aI2538
aI-1988
aI-516
aI-1255
aI677
aI514
aI165
aI318
aI1493
aI-1957
aI-583
aI-920
aI475
aI-1086
aI534
aI694
aI1901
aI375
aI-2767
aI773
aI-2217
aI1212
aI-453
aI-462
aI867
aI-193
aI-1033
aI-384
aI-873
aI2538
aI1357
aI-1454
aI2063
aI-1451
aI-330
aI1608
aI16
aI-962
aI-1337
aI-1258
aI-824
aI3492
aI113
aI-368
aI-1041
aI-1021
aI343
aI-116
aI-3980
aI857
aI-69
aI-1804
aI2803
aI-1546
aI1275
aI942
aI1336
aI-86
aI3057
aI469
aI-2165
aI-628
aI2041
aI865
aI709
aI-178
aI1430
aI555
aI525
aI78
aI2191
aI278
aI-702
aI1468
aI-53
aI-116
aI-383
aI1310
aI-991
aI611
aI-789
aI-237
aI-771
aI-1754
aI617
aI-234
aI1199
aI354
aI-663
aI245
aI1812
aI1505
aI-1032
aI1084
aI-440
aI648
aI-2318
aI2349
aI194
aI-525
aI-2112
aI1275
aI432
aI-269
aI741
aI658
aI-1508
aI-1729
aI-2102
aI363
aI1062
aI-67
aI-41
aI-664
aI-817
aI-342
aI-220
aI-937
aI815
aI-2819
aI-1295
aI2087
aI-599
aI2535
aI445
aI695
aI-1531
aI-514
aI-2307
aI2752
aI-2713
aI-2440
aI-1523
aI-574
aI-30
aI1680
aI1044
aI439
aI582
aI2002
aI-1447
aI910
aI-1393
aI-2225
aI848
aI-206
aI1362
aI1733
aI-822
aI1751
aI-901
aI-475
aI1092
aI-1655
aI-1419
aI-97
aI1045
aI83
aI-1299
aI-1100
aI334
aI409
aI-577
aI-194
aI-1699
aI-1702
aI-220
aI-774
aI-404
aI902
aI611
aI-554
aI-31
aI-3
aI-753
aI-1411
aI2380
aI2065
aI439
aI-1311
aI-1716
aI1051
aI-748
aI1686
aI487
aI3831
aI-92
aI-1054
aI549
aI1030
aI9
aI-1026
aI-1245
aI2382
aI602
aI376
aI1215
aI-778
aI-93
aI523
aI2320
aI-1089
aI-383
aI-837
aI-1978
aI-310
aI1452
aI428
aI368
aI-963
aI27
aI-1935
aI2453
aI-383
aI-2305
aI-1260
aI519
aI-267
aI-738
aI1945
aI-1562
aI1905
aI129
aI-1199
aI-1780
aI-1817
aI2216
aI-2117
aI1730
aI359
aI960
aI-2699
aI-2149
aI863
aI706
aI476
aI-2968
aI1749
aI-1309
aI-941
aI239
aI2804
aI-1247
aI621
aI-170
aI-310
aI84
aI-2682
aI52
aI-2759
aI-1505
aI129
aI1320
aI-291
aI-1457
aI1335
aI-3906
aI-1592
aI-403
aI-1078
aI1167
aI443
aI1609
aI-1926
aI-3007
aI-348
aI43
aI2888
aI810
aI228
aI1180
aI-356
aI213
aI-1355
aI53
aI-2443
aI-3450
aI-664
aI-1500
aI1154
aI459
aI-983
aI1932
aI-699
aI364
aI1507
aI2559
aI194
aI-1476
aI646
aI-1263
aI1154
aI-301
aI-2974
aI-2320
aI407
aI186
aI242
aI1594
aI-409
aI-1930
aI744
aI-3421
aI732
aI2260
aI-381
aI3830
aI-116
aI-2249
aI-1561
aI-170
aI2046
aI-1053
aI1424
aI966
aI1439
aI-226
aI-2506
aI1580
aI1208
aI-1185
aI-1294
aI970
aI196
aI959
aI-1780
aI2712
aI568
aI601
aI-731
aI-1887
aI-390
aI-1245
aI-215
aI-1351
aI3145
aI-2206
aI557
aI-1475
aI402
aI705
aI595
aI2945
aI2437
aI1455
aI1280
aI1297
aI587
aI817
aI-803
aI-3418
aI289
aI234
aI1206
aI58
aI1056
aI1737
aI2669
aI968
aI286
aI2037
aI-986
aI-364
aI2325
aI682
aI-804
aI-2209
aI-2988
aI-2685
aI703
aI-220
aI640
aI-513
aI-113
aI245
aI-548
aI872
aI-934
aI-288
aI2051
aI4274
aI1442
aI-808
aI486
aI519
aI-2619
aI-543
aI1435
aI-911
aI-698
aI1125
aI-864
aI-143
aI-2201
aI611
aI49
aI1396
aI-496
aI-699
aI-1859
aI659
aI-54
aI-998
aI-422
aI124
aI-1838
aI-326
aI-64
aI-1644
aI-578
aI1214
aI-4
aI-1749
aI-825
aI1053
aI-1588
aI1173
aI697
aI-2357
aI18
aI-1487
aI1431
aI-1205
aI-748
aI339
aI-491
aI582
aI1280
aI1051
aI1349
aI-1921
aI-2711
aI-1657
aI149
aI-2068
aI3554
aI-2127
aI431
aI-978
aI-575
aI1109
aI-78
aI1525
aI-1713
aI2144
aI-2588
aI-1195
aI348
aI1398
aI-977
aI-1562
aI-1429
aI-195
aI364
aI1904
aI-1670
aI1167
aI1173
aI-722
aI-939
aI1531
aI-59
aI-479
aI-2073
aI-469
aI-1726
aI-451
aI-259
aI-1033
aI144
aI639
aI-905
aI795
aI2923
aI-2203
aI-924
aI151
aI1414
aI-1067
aI-367
aI-1034
aI2761
aI-2783
aI-68
aI1829
aI-1723
aI-216
aI3124
aI-768
aI-2700
aI2572
aI-294
aI-113
aI1433
aI-1405
aI2001
aI799
aI-47
aI-1409
aI-1063
aI2079
aI260
aI-2568
aI13
aI50
aI-476
aI-635
aI-1590
aS'mpz'
p2
tp3
Rp4
.